Modules list:
-------------
bltutil_romheader.e.o:
    CODE              Offs=000000  Size=0001F2  Align=00001  Fill=0000
    RODATA            Offs=000000  Size=00024A  Align=00001  Fill=0000
    BSS               Offs=000000  Size=000000  Align=00001  Fill=0000
    DATA              Offs=000000  Size=000000  Align=00001  Fill=0000
    ZEROPAGE          Offs=000000  Size=000000  Align=00001  Fill=0000
    NULL              Offs=000000  Size=000000  Align=00001  Fill=0000
    CODE_ROMHEADER    Offs=000000  Size=000041  Align=00001  Fill=0000
bltutil.e.o:
    CODE              Offs=0001F2  Size=000A3C  Align=00001  Fill=0000
    RODATA            Offs=00024A  Size=0001FE  Align=00001  Fill=0000
    BSS               Offs=000000  Size=000000  Align=00001  Fill=0000
    DATA              Offs=000000  Size=000000  Align=00001  Fill=0000
    ZEROPAGE          Offs=000000  Size=000000  Align=00001  Fill=0000
    NULL              Offs=000000  Size=000000  Align=00001  Fill=0000
bltutil_flashutils.e.o:
    CODE              Offs=000C2E  Size=000091  Align=00001  Fill=0000
    RODATA            Offs=000448  Size=000000  Align=00001  Fill=0000
    BSS               Offs=000000  Size=000000  Align=00001  Fill=0000
    DATA              Offs=000000  Size=000000  Align=00001  Fill=0000
    ZEROPAGE          Offs=000000  Size=000000  Align=00001  Fill=0000
    NULL              Offs=000000  Size=000000  Align=00001  Fill=0000
    CODE_FLASH        Offs=000000  Size=0001FB  Align=00001  Fill=0000
bltutil_utils.e.o:
    CODE              Offs=000CBF  Size=000390  Align=00001  Fill=0000
    RODATA            Offs=000448  Size=000011  Align=00001  Fill=0000
    BSS               Offs=000000  Size=000000  Align=00001  Fill=0000
    DATA              Offs=000000  Size=000000  Align=00001  Fill=0000
    ZEROPAGE          Offs=000000  Size=000000  Align=00001  Fill=0000
    NULL              Offs=000000  Size=000000  Align=00001  Fill=0000
bltutil_noice.e.o:
    CODE              Offs=00104F  Size=000079  Align=00001  Fill=0000
    RODATA            Offs=000459  Size=000033  Align=00001  Fill=0000
    BSS               Offs=000000  Size=000000  Align=00001  Fill=0000
    DATA              Offs=000000  Size=000000  Align=00001  Fill=0000
    ZEROPAGE          Offs=000000  Size=000000  Align=00001  Fill=0000
    NULL              Offs=000000  Size=000000  Align=00001  Fill=0000
    BSS_NOICE         Offs=000000  Size=0000A3  Align=00001  Fill=0000
    CODE_NOICE        Offs=000000  Size=0003BC  Align=00001  Fill=0000
    CODE_READMEM      Offs=000000  Size=000015  Align=00001  Fill=0000
    CODE_WRITEMEM     Offs=000000  Size=00002E  Align=00001  Fill=0000
    VEC_NOICE         Offs=000000  Size=000006  Align=00001  Fill=0000
bltutil_jimstuff.e.o:
    CODE              Offs=0010C8  Size=0001C2  Align=00001  Fill=0000
    RODATA            Offs=00048C  Size=000000  Align=00001  Fill=0000
    BSS               Offs=000000  Size=000000  Align=00001  Fill=0000
    DATA              Offs=000000  Size=000000  Align=00001  Fill=0000
    ZEROPAGE          Offs=000000  Size=000000  Align=00001  Fill=0000
    NULL              Offs=000000  Size=000000  Align=00001  Fill=0000
bltutil_sound.e.o:
    CODE              Offs=00128A  Size=0006DA  Align=00001  Fill=0000
    RODATA            Offs=00048C  Size=0000BA  Align=00001  Fill=0000
    BSS               Offs=000000  Size=000000  Align=00001  Fill=0000
    DATA              Offs=000000  Size=000000  Align=00001  Fill=0000
    ZEROPAGE          Offs=000000  Size=000000  Align=00001  Fill=0000
    NULL              Offs=000000  Size=000000  Align=00001  Fill=0000
bltutil_heap.e.o:
    CODE              Offs=001964  Size=0004E1  Align=00001  Fill=0000
    RODATA            Offs=000546  Size=000060  Align=00001  Fill=0000
    BSS               Offs=000000  Size=000000  Align=00001  Fill=0000
    DATA              Offs=000000  Size=000000  Align=00001  Fill=0000
    ZEROPAGE          Offs=000000  Size=000000  Align=00001  Fill=0000
    NULL              Offs=000000  Size=000000  Align=00001  Fill=0000
bltutil_sound_irq.e.o:
    CODE              Offs=001E45  Size=00030A  Align=00001  Fill=0000
    RODATA            Offs=0005A6  Size=000000  Align=00001  Fill=0000
    BSS               Offs=000000  Size=000000  Align=00001  Fill=0000
    DATA              Offs=000000  Size=000000  Align=00001  Fill=0000
    ZEROPAGE          Offs=000000  Size=000000  Align=00001  Fill=0000
    NULL              Offs=000000  Size=000000  Align=00001  Fill=0000
bltutil_cfg.e.o:
    CODE              Offs=00214F  Size=000437  Align=00001  Fill=0000
    RODATA            Offs=0005A6  Size=000175  Align=00001  Fill=0000
    BSS               Offs=000000  Size=000000  Align=00001  Fill=0000
    DATA              Offs=000000  Size=000000  Align=00001  Fill=0000
    ZEROPAGE          Offs=000000  Size=000000  Align=00001  Fill=0000
    NULL              Offs=000000  Size=000000  Align=00001  Fill=0000


Segment list:
-------------
Name                   Start     End    Size  Align
----------------------------------------------------
BSS                   000000  000000  000000  00001
DATA                  000000  000000  000000  00001
NULL                  000000  000000  000000  00001
ZEROPAGE              000070  000070  000000  00001
CODE_READMEM          000100  000114  000015  00001
CODE_WRITEMEM         000100  00012D  00002E  00001
CODE_FLASH            002000  0021FA  0001FB  00001
CODE_ROMHEADER        008000  008040  000041  00001
CODE                  008041  00A5C6  002586  00001
RODATA                00A5C7  00ACE1  00071B  00001
BSS_NOICE             00C000  00C0A2  0000A3  00001
CODE_NOICE            00F000  00F3BB  0003BC  00001
VEC_NOICE             00FFFA  00FFFF  000006  00001


Exports list by name:
---------------------
BounceErrorOffStack       008D00 RLA    CheckBlitterPresent       009150 RLA    
CheckBlitterPresentBrk    009109 RLA    CheckESC                  009054 RLA    
CheckEitherPresentBrk     009145 RLA    CheckPaulaPresent         00914B RLA    
Copyright                 00802B RLA    FlashCmdA                 002099 RLA    
FlashCmdAWT               00206A RLA    FlashEraseROM             0021C7 RLA    
FlashReset                0021B0 RLA    FlashReset_Q              008CE2 RLA    
Flash_SRLOAD              002105 RLA    ParseHex                  008EA2 RLA    
ParseHexAlpha             008ED6  LA    ParseHexDone              008EE8  LA    
ParseHexErr               008EE3  LA    ParseHexLp                008EB1  LA    
ParseHexShAd              008ECD  LA    PopAcc                    008FDD RLA    
Print2Spc                 008D26 RLA    PrintA                    008D2B RLA    
PrintBytesAndK            008DD7 RLA    PrintCommaSpace           008D1E RLA    
PrintDec                  008D59  LA    PrintHexA                 008D31 RLA    
PrintHexNybA              008D40 RLA    PrintHexXY                008D4E RLA    
PrintImmed                008D7E RLA    PrintMsgXYThenHexNyb      008D73 RLA    
PrintNL                   008D2E RLA    PrintPTR                  008DC8 RLA    
PrintSizeK                008DE9 RLA    PrintSpc                  008D29 RLA    
PrintXY                   008DB2 RLA    PromptNo                  008E1E  LA    
PromptRTS                 008E33  LA    PromptYN                  008E07 RLA    
PromptYes                 008E29  LA    PushAcc                   008FB1 RLA    
REMV_internal_CLV         00983A RLA    REMV_internal_SEV         009835 RLA    
ServiceOut                008073 RLA    ServiceOutA0              008079 RLA    
SkipSpacesPTR             008E57 RLA    StackAllocX               008EEE RLA    
StackFree                 008F1D RLA    ToUpper                   008E62 RLA    
WaitKey                   008E34  LA    _LECA2                    009FE4 RLA    
_SOUND_IRQ                009E89 RLA    __CODE_FLASH_LOAD__       00ACE2 RLA    
__CODE_FLASH_RUN__        002000 RLA    __CODE_FLASH_SIZE__       0001FB  EA    
__CODE_READMEM_LOAD__     00F3EA RLA    __CODE_READMEM_RUN__      000100  LA    
__CODE_READMEM_SIZE__     000015  EA    __CODE_WRITEMEM_LOAD__    00F3BC RLA    
__CODE_WRITEMEM_RUN__     000100 RLA    __CODE_WRITEMEM_SIZE__    00002E  EA    
__RAM_TRANS_FL_FILEOFFS__ 004000  EA    __RAM_TRANS_FL_LAST__     0021FB RLA    
__RAM_TRANS_FL_SIZE__     000500  EA    __RAM_TRANS_FL_START__    002000 RLA    
__ZP_FILEOFFS__           000000  EA    __ZP_LAST__               000070  LA    
__ZP_SIZE__               000020  EA    __ZP_START__              000070  LA    
ackEscape                 009058  LA    addAAcc                   008F75  LA    
allocfreexy               0095D5  LA    asl4Acc                   008F61  LA    
brkBadCommand             00906B RLA    brkBlitterNotPresent      00910F  LA    
brkEraseFailed            0021B8 RLA    brkInvalidArgument        00907B RLA    
cfgGetAPILevel            00A25E  LA    cfgGetRomMap              00A190 RLA    
cfgGetStringY             00A26A  LA    cfgPrintStringY           00A290  LA    
cfgPrintVersionBoot       00A1F1 RLA    cmdBLLoad                 008A94 RLA    
cmdBLSave                 008B79 RLA    cmdBLTurbo                008374 RLA    
cmdHeapInfo               009D41 RLA    cmdInfo                   00A377 RLA    
cmdNoIce                  0090B0 RLA    cmdNoIce_BRK              0090FB RLA    
cmdRoms                   00856F RLA    cmdSRCOPY                 0087D3 RLA    
cmdSRERASE                008719 RLA    cmdSRLOAD                 008293 RLA    
cmdSRNUKE                 00885E RLA    cmdSRNUKE_lang            008840 RLA    
cmdSRNUKE_reboot          00894D RLA    cmdSound                  0092E7 RLA    
cmdSoundSamClear          009953 RLA    cmdSoundSamLoad           00943A RLA    
cmdSoundSamMap            0098DB RLA    cmdXMdump                 008957 RLA    
crc16                     00900F RLA    crc16_cl                  009029  LA    
crc16_lp                  00901A  LA    div10Acc                  008F89  LA    
heap_OSWORD_bltutil       009A37 RLA    heap_init                 0099A5 RLA    
inkey_clear               009032 RLA    isAcc0                    008FA8 RLA    
jimCheckEitherSelected    009279  LA    jimClaimDev               0091D8 RLA    
jimPageChipset            009297 RLA    jimPageSamTbl             0092A4 RLA    
jimPageSoundWorkspace     0092B1 RLA    jimPageVersion            0092BE RLA    
jimPageWorkspace          00928A RLA    jimReleaseDev             009242  LA    
jimReleaseDev_err         00921B RLA    jimSetDEV_A               009155 RLA    
jimSetDEV_blitter         009150 RLA    jimSetDEV_either          009166 RLA    
jimSetDEV_either_stack_old 00916F RLA    jimSetDEV_paula           00914B  LA    
jimUnStackDev             00919C RLA    noice_init                009090 RLA    
parseONOFF                008E6D RLA    parseONOFF_ON             008E9E  LA    
parseONOFF_ck             008E93  LA    pitch2period              0096FD RLA    
printCPU                  00A299  LA    printHardCPU              00A296  LA    
romRead                   002001 RLA    romWrite                  002006 RLA    
romWriteInit              008C6F RLA    sound_OSWORD_SOUND        009622 RLA    
sound_boot                0092CB RLA    sound_irq                 0098C5 RLA    
strCmdBLTurbo             00A6F1 RLA    str_Dossy                 008034 RLA    
zeroAcc                   008F54 RLA    


Exports list by value:
----------------------
__ZP_FILEOFFS__           000000  EA    __CODE_READMEM_SIZE__     000015  EA    
__ZP_SIZE__               000020  EA    __CODE_WRITEMEM_SIZE__    00002E  EA    
__ZP_LAST__               000070  LA    __ZP_START__              000070  LA    
__CODE_READMEM_RUN__      000100  LA    __CODE_WRITEMEM_RUN__     000100 RLA    
__CODE_FLASH_SIZE__       0001FB  EA    __RAM_TRANS_FL_SIZE__     000500  EA    
__CODE_FLASH_RUN__        002000 RLA    __RAM_TRANS_FL_START__    002000 RLA    
romRead                   002001 RLA    romWrite                  002006 RLA    
FlashCmdAWT               00206A RLA    FlashCmdA                 002099 RLA    
Flash_SRLOAD              002105 RLA    FlashReset                0021B0 RLA    
brkEraseFailed            0021B8 RLA    FlashEraseROM             0021C7 RLA    
__RAM_TRANS_FL_LAST__     0021FB RLA    __RAM_TRANS_FL_FILEOFFS__ 004000  EA    
Copyright                 00802B RLA    str_Dossy                 008034 RLA    
ServiceOut                008073 RLA    ServiceOutA0              008079 RLA    
cmdSRLOAD                 008293 RLA    cmdBLTurbo                008374 RLA    
cmdRoms                   00856F RLA    cmdSRERASE                008719 RLA    
cmdSRCOPY                 0087D3 RLA    cmdSRNUKE_lang            008840 RLA    
cmdSRNUKE                 00885E RLA    cmdSRNUKE_reboot          00894D RLA    
cmdXMdump                 008957 RLA    cmdBLLoad                 008A94 RLA    
cmdBLSave                 008B79 RLA    romWriteInit              008C6F RLA    
FlashReset_Q              008CE2 RLA    BounceErrorOffStack       008D00 RLA    
PrintCommaSpace           008D1E RLA    Print2Spc                 008D26 RLA    
PrintSpc                  008D29 RLA    PrintA                    008D2B RLA    
PrintNL                   008D2E RLA    PrintHexA                 008D31 RLA    
PrintHexNybA              008D40 RLA    PrintHexXY                008D4E RLA    
PrintDec                  008D59  LA    PrintMsgXYThenHexNyb      008D73 RLA    
PrintImmed                008D7E RLA    PrintXY                   008DB2 RLA    
PrintPTR                  008DC8 RLA    PrintBytesAndK            008DD7 RLA    
PrintSizeK                008DE9 RLA    PromptYN                  008E07 RLA    
PromptNo                  008E1E  LA    PromptYes                 008E29  LA    
PromptRTS                 008E33  LA    WaitKey                   008E34  LA    
SkipSpacesPTR             008E57 RLA    ToUpper                   008E62 RLA    
parseONOFF                008E6D RLA    parseONOFF_ck             008E93  LA    
parseONOFF_ON             008E9E  LA    ParseHex                  008EA2 RLA    
ParseHexLp                008EB1  LA    ParseHexShAd              008ECD  LA    
ParseHexAlpha             008ED6  LA    ParseHexErr               008EE3  LA    
ParseHexDone              008EE8  LA    StackAllocX               008EEE RLA    
StackFree                 008F1D RLA    zeroAcc                   008F54 RLA    
asl4Acc                   008F61  LA    addAAcc                   008F75  LA    
div10Acc                  008F89  LA    isAcc0                    008FA8 RLA    
PushAcc                   008FB1 RLA    PopAcc                    008FDD RLA    
crc16                     00900F RLA    crc16_lp                  00901A  LA    
crc16_cl                  009029  LA    inkey_clear               009032 RLA    
CheckESC                  009054 RLA    ackEscape                 009058  LA    
brkBadCommand             00906B RLA    brkInvalidArgument        00907B RLA    
noice_init                009090 RLA    cmdNoIce                  0090B0 RLA    
cmdNoIce_BRK              0090FB RLA    CheckBlitterPresentBrk    009109 RLA    
brkBlitterNotPresent      00910F  LA    CheckEitherPresentBrk     009145 RLA    
CheckPaulaPresent         00914B RLA    jimSetDEV_paula           00914B  LA    
CheckBlitterPresent       009150 RLA    jimSetDEV_blitter         009150 RLA    
jimSetDEV_A               009155 RLA    jimSetDEV_either          009166 RLA    
jimSetDEV_either_stack_old 00916F RLA    jimUnStackDev             00919C RLA    
jimClaimDev               0091D8 RLA    jimReleaseDev_err         00921B RLA    
jimReleaseDev             009242  LA    jimCheckEitherSelected    009279  LA    
jimPageWorkspace          00928A RLA    jimPageChipset            009297 RLA    
jimPageSamTbl             0092A4 RLA    jimPageSoundWorkspace     0092B1 RLA    
jimPageVersion            0092BE RLA    sound_boot                0092CB RLA    
cmdSound                  0092E7 RLA    cmdSoundSamLoad           00943A RLA    
allocfreexy               0095D5  LA    sound_OSWORD_SOUND        009622 RLA    
pitch2period              0096FD RLA    REMV_internal_SEV         009835 RLA    
REMV_internal_CLV         00983A RLA    sound_irq                 0098C5 RLA    
cmdSoundSamMap            0098DB RLA    cmdSoundSamClear          009953 RLA    
heap_init                 0099A5 RLA    heap_OSWORD_bltutil       009A37 RLA    
cmdHeapInfo               009D41 RLA    _SOUND_IRQ                009E89 RLA    
_LECA2                    009FE4 RLA    cfgGetRomMap              00A190 RLA    
cfgPrintVersionBoot       00A1F1 RLA    cfgGetAPILevel            00A25E  LA    
cfgGetStringY             00A26A  LA    cfgPrintStringY           00A290  LA    
printHardCPU              00A296  LA    printCPU                  00A299  LA    
cmdInfo                   00A377 RLA    strCmdBLTurbo             00A6F1 RLA    
__CODE_FLASH_LOAD__       00ACE2 RLA    __CODE_WRITEMEM_LOAD__    00F3BC RLA    
__CODE_READMEM_LOAD__     00F3EA RLA    


Imports list:
-------------
BounceErrorOffStack (bltutil_utils.e.o):
    bltutil_cfg.e.o           bltutil_utils.inc(3)
    bltutil_sound.e.o         bltutil_utils.inc(3)
    bltutil_jimstuff.e.o      bltutil_utils.inc(3)
    bltutil_noice.e.o         bltutil_utils.inc(3)
    bltutil_flashutils.e.o    bltutil_utils.inc(3)
    bltutil.e.o               bltutil_utils.inc(3)
CheckBlitterPresent (bltutil_jimstuff.e.o):
    bltutil.e.o               bltutil_jimstuff.inc(1)
    bltutil_romheader.e.o     bltutil_jimstuff.inc(1)
CheckBlitterPresentBrk (bltutil_jimstuff.e.o):
    bltutil_noice.e.o         bltutil_jimstuff.inc(3)
    bltutil.e.o               bltutil_jimstuff.inc(3)
CheckESC (bltutil_utils.e.o):
    bltutil.e.o               bltutil_utils.inc(52)
CheckEitherPresentBrk (bltutil_jimstuff.e.o):
    bltutil_heap.e.o          bltutil_jimstuff.inc(4)
    bltutil_sound.e.o         bltutil_jimstuff.inc(4)
CheckPaulaPresent (bltutil_jimstuff.e.o):
    bltutil_romheader.e.o     bltutil_jimstuff.inc(2)
Copyright (bltutil_romheader.e.o):
    bltutil.e.o               bltutil_romheader.inc(2)
FlashCmdA (bltutil_flashutils.e.o):
    bltutil.e.o               bltutil_flashutils.inc(9)
FlashCmdAWT (bltutil_flashutils.e.o):
    bltutil.e.o               bltutil_flashutils.inc(5)
FlashEraseROM (bltutil_flashutils.e.o):
    bltutil.e.o               bltutil_flashutils.inc(3)
FlashReset (bltutil_flashutils.e.o):
    bltutil.e.o               bltutil_flashutils.inc(2)
FlashReset_Q (bltutil_flashutils.e.o):
    bltutil_romheader.e.o     bltutil_flashutils.inc(1)
Flash_SRLOAD (bltutil_flashutils.e.o):
    bltutil.e.o               bltutil_flashutils.inc(11)
ParseHex (bltutil_utils.e.o):
    bltutil_sound.e.o         bltutil_utils.inc(31)
    bltutil.e.o               bltutil_utils.inc(31)
ParseHexAlpha (bltutil_utils.e.o):
ParseHexDone (bltutil_utils.e.o):
ParseHexErr (bltutil_utils.e.o):
ParseHexLp (bltutil_utils.e.o):
ParseHexShAd (bltutil_utils.e.o):
PopAcc (bltutil_utils.e.o):
    bltutil_heap.e.o          bltutil_utils.inc(43)
    bltutil.e.o               bltutil_utils.inc(43)
Print2Spc (bltutil_utils.e.o):
    bltutil.e.o               bltutil_utils.inc(5)
PrintA (bltutil_utils.e.o):
    bltutil_cfg.e.o           bltutil_utils.inc(7)
    bltutil.e.o               bltutil_utils.inc(7)
PrintBytesAndK (bltutil_utils.e.o):
    bltutil_heap.e.o          bltutil_utils.inc(22)
PrintCommaSpace (bltutil_utils.e.o):
    bltutil_cfg.e.o           bltutil_utils.inc(4)
PrintDec (bltutil_utils.e.o):
PrintHexA (bltutil_utils.e.o):
    bltutil_cfg.e.o           bltutil_utils.inc(9)
    bltutil_heap.e.o          bltutil_utils.inc(9)
    bltutil_sound.e.o         bltutil_utils.inc(9)
    bltutil.e.o               bltutil_utils.inc(9)
PrintHexNybA (bltutil_utils.e.o):
    bltutil_cfg.e.o           bltutil_utils.inc(10)
    bltutil.e.o               bltutil_utils.inc(10)
PrintHexXY (bltutil_utils.e.o):
    bltutil_heap.e.o          bltutil_utils.inc(11)
PrintImmed (bltutil_utils.e.o):
    bltutil_cfg.e.o           bltutil_utils.inc(15)
    bltutil.e.o               bltutil_utils.inc(15)
PrintMsgXYThenHexNyb (bltutil_utils.e.o):
    bltutil_sound.e.o         bltutil_utils.inc(12)
    bltutil.e.o               bltutil_utils.inc(12)
PrintNL (bltutil_utils.e.o):
    bltutil_cfg.e.o           bltutil_utils.inc(8)
    bltutil.e.o               bltutil_utils.inc(8)
    bltutil_romheader.e.o     bltutil_utils.inc(8)
PrintPTR (bltutil_utils.e.o):
    bltutil.e.o               bltutil_utils.inc(14)
    bltutil_romheader.e.o     bltutil_utils.inc(14)
PrintSizeK (bltutil_utils.e.o):
    bltutil_cfg.e.o           bltutil_utils.inc(23)
PrintSpc (bltutil_utils.e.o):
    bltutil_cfg.e.o           bltutil_utils.inc(6)
    bltutil_heap.e.o          bltutil_utils.inc(6)
    bltutil.e.o               bltutil_utils.inc(6)
    bltutil_romheader.e.o     bltutil_utils.inc(6)
PrintXY (bltutil_utils.e.o):
    bltutil_cfg.e.o           bltutil_utils.inc(13)
    bltutil_heap.e.o          bltutil_utils.inc(13)
    bltutil_sound.e.o         bltutil_utils.inc(13)
    bltutil_noice.e.o         bltutil_utils.inc(13)
    bltutil.e.o               bltutil_utils.inc(13)
    bltutil_romheader.e.o     bltutil_utils.inc(13)
PromptNo (bltutil_utils.e.o):
PromptRTS (bltutil_utils.e.o):
PromptYN (bltutil_utils.e.o):
    bltutil.e.o               bltutil_utils.inc(16)
PromptYes (bltutil_utils.e.o):
PushAcc (bltutil_utils.e.o):
    bltutil_heap.e.o          bltutil_utils.inc(42)
    bltutil.e.o               bltutil_utils.inc(42)
REMV_internal_CLV (bltutil_sound.e.o):
    bltutil_sound_irq.e.o     bltutil_sound_irq.asm(14)
REMV_internal_SEV (bltutil_sound.e.o):
    bltutil_sound_irq.e.o     bltutil_sound_irq.asm(13)
ServiceOut (bltutil_romheader.e.o):
    bltutil_sound.e.o         bltutil_romheader.inc(4)
ServiceOutA0 (bltutil_romheader.e.o):
    bltutil_heap.e.o          bltutil_romheader.inc(5)
    bltutil_sound.e.o         bltutil_romheader.inc(5)
SkipSpacesPTR (bltutil_utils.e.o):
    bltutil_heap.e.o          bltutil_utils.inc(26)
    bltutil_sound.e.o         bltutil_utils.inc(26)
    bltutil.e.o               bltutil_utils.inc(26)
    bltutil_romheader.e.o     bltutil_utils.inc(26)
StackAllocX (bltutil_utils.e.o):
    bltutil_sound.e.o         bltutil_utils.inc(44)
StackFree (bltutil_utils.e.o):
    bltutil_sound.e.o         bltutil_utils.inc(45)
ToUpper (bltutil_utils.e.o):
    bltutil_heap.e.o          bltutil_utils.inc(27)
    bltutil.e.o               bltutil_utils.inc(27)
    bltutil_romheader.e.o     bltutil_utils.inc(27)
WaitKey (bltutil_utils.e.o):
_LECA2 (bltutil_sound_irq.e.o):
    bltutil_sound.e.o         bltutil_sound.asm(22)
_SOUND_IRQ (bltutil_sound_irq.e.o):
    bltutil_sound.e.o         bltutil_sound.asm(1181)
__CODE_FLASH_LOAD__ ([linker generated]):
    bltutil_flashutils.e.o    bltutil_flashutils.asm(6)
__CODE_FLASH_RUN__ ([linker generated]):
    bltutil_flashutils.e.o    bltutil_flashutils.asm(7)
__CODE_FLASH_SIZE__ ([linker generated]):
__CODE_READMEM_LOAD__ ([linker generated]):
    bltutil_noice.e.o         bltutil_noice.asm(11)
__CODE_READMEM_RUN__ ([linker generated]):
__CODE_READMEM_SIZE__ ([linker generated]):
__CODE_WRITEMEM_LOAD__ ([linker generated]):
    bltutil_noice.e.o         bltutil_noice.asm(9)
__CODE_WRITEMEM_RUN__ ([linker generated]):
    bltutil_noice.e.o         bltutil_noice.asm(8)
__CODE_WRITEMEM_SIZE__ ([linker generated]):
__RAM_TRANS_FL_FILEOFFS__ ([linker generated]):
__RAM_TRANS_FL_LAST__ ([linker generated]):
    bltutil_flashutils.e.o    bltutil_flashutils.asm(9)
__RAM_TRANS_FL_SIZE__ ([linker generated]):
__RAM_TRANS_FL_START__ ([linker generated]):
    bltutil_flashutils.e.o    bltutil_flashutils.asm(8)
__ZP_FILEOFFS__ ([linker generated]):
__ZP_LAST__ ([linker generated]):
__ZP_SIZE__ ([linker generated]):
__ZP_START__ ([linker generated]):
ackEscape (bltutil_utils.e.o):
addAAcc (bltutil_utils.e.o):
allocfreexy (bltutil_sound.e.o):
asl4Acc (bltutil_utils.e.o):
brkBadCommand (bltutil_utils.e.o):
    bltutil_sound.e.o         bltutil_utils.inc(54)
    bltutil_noice.e.o         bltutil_utils.inc(54)
    bltutil.e.o               bltutil_utils.inc(54)
brkBlitterNotPresent (bltutil_jimstuff.e.o):
brkEraseFailed (bltutil_flashutils.e.o):
    bltutil.e.o               bltutil_flashutils.inc(6)
brkInvalidArgument (bltutil_utils.e.o):
    bltutil.e.o               bltutil_utils.inc(55)
cfgGetAPILevel (bltutil_cfg.e.o):
cfgGetRomMap (bltutil_cfg.e.o):
    bltutil_heap.e.o          bltutil_cfg.inc(2)
cfgGetStringY (bltutil_cfg.e.o):
cfgPrintStringY (bltutil_cfg.e.o):
cfgPrintVersionBoot (bltutil_cfg.e.o):
    bltutil_romheader.e.o     bltutil_cfg.inc(3)
cmdBLLoad (bltutil.e.o):
    bltutil_romheader.e.o     bltutil_romheader.asm(25)
cmdBLSave (bltutil.e.o):
    bltutil_romheader.e.o     bltutil_romheader.asm(26)
cmdBLTurbo (bltutil.e.o):
    bltutil_romheader.e.o     bltutil_romheader.asm(16)
cmdHeapInfo (bltutil_heap.e.o):
    bltutil_romheader.e.o     bltutil_heap.inc(3)
cmdInfo (bltutil_cfg.e.o):
    bltutil_romheader.e.o     bltutil_cfg.inc(6)
cmdNoIce (bltutil_noice.e.o):
    bltutil_romheader.e.o     bltutil_noice.inc(4)
cmdNoIce_BRK (bltutil_noice.e.o):
    bltutil_romheader.e.o     bltutil_noice.inc(5)
cmdRoms (bltutil.e.o):
    bltutil_romheader.e.o     bltutil_romheader.asm(24)
cmdSRCOPY (bltutil.e.o):
    bltutil_romheader.e.o     bltutil_romheader.asm(23)
cmdSRERASE (bltutil.e.o):
    bltutil_romheader.e.o     bltutil_romheader.asm(22)
cmdSRLOAD (bltutil.e.o):
    bltutil_romheader.e.o     bltutil_romheader.asm(18)
cmdSRNUKE (bltutil.e.o):
    bltutil_romheader.e.o     bltutil_romheader.asm(19)
cmdSRNUKE_lang (bltutil.e.o):
    bltutil_romheader.e.o     bltutil_romheader.asm(21)
cmdSRNUKE_reboot (bltutil.e.o):
    bltutil_romheader.e.o     bltutil_romheader.asm(20)
cmdSound (bltutil_sound.e.o):
    bltutil_romheader.e.o     bltutil_sound.inc(2)
cmdSoundSamClear (bltutil_sound.e.o):
    bltutil_romheader.e.o     bltutil_sound.inc(9)
cmdSoundSamLoad (bltutil_sound.e.o):
    bltutil_romheader.e.o     bltutil_sound.inc(5)
cmdSoundSamMap (bltutil_sound.e.o):
    bltutil_romheader.e.o     bltutil_sound.inc(8)
cmdXMdump (bltutil.e.o):
    bltutil_romheader.e.o     bltutil_romheader.asm(17)
crc16 (bltutil_utils.e.o):
    bltutil.e.o               bltutil_utils.inc(46)
crc16_cl (bltutil_utils.e.o):
crc16_lp (bltutil_utils.e.o):
div10Acc (bltutil_utils.e.o):
heap_OSWORD_bltutil (bltutil_heap.e.o):
    bltutil_romheader.e.o     bltutil_heap.inc(2)
heap_init (bltutil_heap.e.o):
    bltutil_romheader.e.o     bltutil_heap.inc(1)
inkey_clear (bltutil_utils.e.o):
    bltutil.e.o               bltutil_utils.inc(50)
isAcc0 (bltutil_utils.e.o):
    bltutil_sound.e.o         bltutil_utils.inc(41)
jimCheckEitherSelected (bltutil_jimstuff.e.o):
jimClaimDev (bltutil_jimstuff.e.o):
    bltutil_romheader.e.o     bltutil_jimstuff.inc(12)
jimPageChipset (bltutil_jimstuff.e.o):
    bltutil_sound_irq.e.o     bltutil_jimstuff.inc(14)
    bltutil_sound.e.o         bltutil_jimstuff.inc(14)
jimPageSamTbl (bltutil_jimstuff.e.o):
    bltutil_sound_irq.e.o     bltutil_jimstuff.inc(19)
    bltutil_sound.e.o         bltutil_jimstuff.inc(19)
jimPageSoundWorkspace (bltutil_jimstuff.e.o):
    bltutil_sound_irq.e.o     bltutil_jimstuff.inc(20)
    bltutil_sound.e.o         bltutil_jimstuff.inc(20)
jimPageVersion (bltutil_jimstuff.e.o):
    bltutil_cfg.e.o           bltutil_jimstuff.inc(15)
jimPageWorkspace (bltutil_jimstuff.e.o):
    bltutil_heap.e.o          bltutil_jimstuff.inc(13)
jimReleaseDev (bltutil_jimstuff.e.o):
jimReleaseDev_err (bltutil_jimstuff.e.o):
    bltutil_utils.e.o         bltutil_jimstuff.inc(11)
jimSetDEV_A (bltutil_jimstuff.e.o):
    bltutil.e.o               bltutil_jimstuff.inc(10)
jimSetDEV_blitter (bltutil_jimstuff.e.o):
    bltutil.e.o               bltutil_jimstuff.inc(7)
jimSetDEV_either (bltutil_jimstuff.e.o):
    bltutil_cfg.e.o           bltutil_jimstuff.inc(9)
    bltutil_heap.e.o          bltutil_jimstuff.inc(9)
    bltutil_sound.e.o         bltutil_jimstuff.inc(9)
    bltutil.e.o               bltutil_jimstuff.inc(9)
jimSetDEV_either_stack_old (bltutil_jimstuff.e.o):
    bltutil_sound.e.o         bltutil_jimstuff.inc(17)
jimSetDEV_paula (bltutil_jimstuff.e.o):
jimUnStackDev (bltutil_jimstuff.e.o):
    bltutil_sound.e.o         bltutil_jimstuff.inc(18)
noice_init (bltutil_noice.e.o):
    bltutil_romheader.e.o     bltutil_noice.inc(3)
parseONOFF (bltutil_utils.e.o):
    bltutil_noice.e.o         bltutil_utils.inc(28)
parseONOFF_ON (bltutil_utils.e.o):
parseONOFF_ck (bltutil_utils.e.o):
pitch2period (bltutil_sound.e.o):
    bltutil_sound_irq.e.o     bltutil_sound_irq.asm(12)
printCPU (bltutil_cfg.e.o):
printHardCPU (bltutil_cfg.e.o):
romRead (bltutil_flashutils.e.o):
    bltutil.e.o               bltutil_flashutils.inc(7)
romWrite (bltutil_flashutils.e.o):
    bltutil.e.o               bltutil_flashutils.inc(8)
romWriteInit (bltutil_flashutils.e.o):
    bltutil.e.o               bltutil_flashutils.inc(4)
sound_OSWORD_SOUND (bltutil_sound.e.o):
    bltutil_romheader.e.o     bltutil_sound.inc(4)
sound_boot (bltutil_sound.e.o):
    bltutil_romheader.e.o     bltutil_sound.inc(6)
sound_irq (bltutil_sound.e.o):
    bltutil_romheader.e.o     bltutil_sound.inc(3)
strCmdBLTurbo (bltutil_romheader.e.o):
    bltutil.e.o               bltutil_romheader.inc(3)
str_Dossy (bltutil_romheader.e.o):
    bltutil_cfg.e.o           bltutil_cfg.asm(110)
zeroAcc (bltutil_utils.e.o):
    bltutil_cfg.e.o           bltutil_utils.inc(37)
    bltutil_sound.e.o         bltutil_utils.inc(37)

