Modules list:
-------------
clib_rom.o:
    CODE              Offs=000000  Size=000001  Align=00001  Fill=0000
    RODATA            Offs=000000  Size=000000  Align=00001  Fill=0000
    BSS               Offs=000000  Size=000000  Align=00001  Fill=0000
    DATA              Offs=000000  Size=000000  Align=00001  Fill=0000
    ZEROPAGE          Offs=000000  Size=000000  Align=00001  Fill=0000
    NULL              Offs=000000  Size=000000  Align=00001  Fill=0000
    HEADER            Offs=000000  Size=000031  Align=00001  Fill=0000
../build/clib_rom.tmp.lib(staspidx.o):
    CODE              Offs=000001  Size=000016  Align=00001  Fill=0000
    RODATA            Offs=000000  Size=000000  Align=00001  Fill=0000
    BSS               Offs=000000  Size=000000  Align=00001  Fill=0000
    DATA              Offs=000000  Size=000000  Align=00001  Fill=0000
    ZEROPAGE          Offs=000000  Size=000000  Align=00001  Fill=0000
    NULL              Offs=000000  Size=000000  Align=00001  Fill=0000
../build/clib_rom.tmp.lib(shr.o):
    CODE              Offs=000017  Size=000034  Align=00001  Fill=0000
    RODATA            Offs=000000  Size=000000  Align=00001  Fill=0000
    BSS               Offs=000000  Size=000000  Align=00001  Fill=0000
    DATA              Offs=000000  Size=000000  Align=00001  Fill=0000
    ZEROPAGE          Offs=000000  Size=000000  Align=00001  Fill=0000
    NULL              Offs=000000  Size=000000  Align=00001  Fill=0000
../build/clib_rom.tmp.lib(shreax3.o):
    CODE              Offs=00004B  Size=00001A  Align=00001  Fill=0000
    RODATA            Offs=000000  Size=000000  Align=00001  Fill=0000
    BSS               Offs=000000  Size=000000  Align=00001  Fill=0000
    DATA              Offs=000000  Size=000000  Align=00001  Fill=0000
    ZEROPAGE          Offs=000000  Size=000000  Align=00001  Fill=0000
    NULL              Offs=000000  Size=000000  Align=00001  Fill=0000
../build/clib_rom.tmp.lib(return1.o):
    CODE              Offs=000065  Size=000005  Align=00001  Fill=0000
    RODATA            Offs=000000  Size=000000  Align=00001  Fill=0000
    BSS               Offs=000000  Size=000000  Align=00001  Fill=0000
    DATA              Offs=000000  Size=000000  Align=00001  Fill=0000
    ZEROPAGE          Offs=000000  Size=000000  Align=00001  Fill=0000
    NULL              Offs=000000  Size=000000  Align=00001  Fill=0000
../build/clib_rom.tmp.lib(strchr.o):
    CODE              Offs=00006A  Size=000027  Align=00001  Fill=0000
    RODATA            Offs=000000  Size=000000  Align=00001  Fill=0000
    BSS               Offs=000000  Size=000000  Align=00001  Fill=0000
    DATA              Offs=000000  Size=000000  Align=00001  Fill=0000
    ZEROPAGE          Offs=000000  Size=000000  Align=00001  Fill=0000
    NULL              Offs=000000  Size=000000  Align=00001  Fill=0000
../build/clib_rom.tmp.lib(decsp1.o):
    CODE              Offs=000091  Size=000009  Align=00001  Fill=0000
    RODATA            Offs=000000  Size=000000  Align=00001  Fill=0000
    BSS               Offs=000000  Size=000000  Align=00001  Fill=0000
    DATA              Offs=000000  Size=000000  Align=00001  Fill=0000
    ZEROPAGE          Offs=000000  Size=000000  Align=00001  Fill=0000
    NULL              Offs=000000  Size=000000  Align=00001  Fill=0000
../build/clib_rom.tmp.lib(_udiv32by16r16.o):
    CODE              Offs=00009A  Size=00001C  Align=00001  Fill=0000
    RODATA            Offs=000000  Size=000000  Align=00001  Fill=0000
    BSS               Offs=000000  Size=000000  Align=00001  Fill=0000
    DATA              Offs=000000  Size=000000  Align=00001  Fill=0000
    ZEROPAGE          Offs=000000  Size=000000  Align=00001  Fill=0000
    NULL              Offs=000000  Size=000000  Align=00001  Fill=0000
../build/clib_rom.tmp.lib(incax5.o):
    CODE              Offs=0000B6  Size=000005  Align=00001  Fill=0000
    RODATA            Offs=000000  Size=000000  Align=00001  Fill=0000
    BSS               Offs=000000  Size=000000  Align=00001  Fill=0000
    DATA              Offs=000000  Size=000000  Align=00001  Fill=0000
    ZEROPAGE          Offs=000000  Size=000000  Align=00001  Fill=0000
    NULL              Offs=000000  Size=000000  Align=00001  Fill=0000
../build/clib_rom.tmp.lib(lsave.o):
    CODE              Offs=0000BB  Size=00001A  Align=00001  Fill=0000
    RODATA            Offs=000000  Size=000000  Align=00001  Fill=0000
    BSS               Offs=000000  Size=000000  Align=00001  Fill=0000
    DATA              Offs=000000  Size=000000  Align=00001  Fill=0000
    ZEROPAGE          Offs=000000  Size=000000  Align=00001  Fill=0000
    NULL              Offs=000000  Size=000000  Align=00001  Fill=0000
../build/clib_rom.tmp.lib(asreax2.o):
    CODE              Offs=0000D5  Size=000019  Align=00001  Fill=0000
    RODATA            Offs=000000  Size=000000  Align=00001  Fill=0000
    BSS               Offs=000000  Size=000000  Align=00001  Fill=0000
    DATA              Offs=000000  Size=000000  Align=00001  Fill=0000
    ZEROPAGE          Offs=000000  Size=000000  Align=00001  Fill=0000
    NULL              Offs=000000  Size=000000  Align=00001  Fill=0000
../build/clib_rom.tmp.lib(callptr4.o):
    CODE              Offs=0000EE  Size=000003  Align=00001  Fill=0000
    RODATA            Offs=000000  Size=000000  Align=00001  Fill=0000
    BSS               Offs=000000  Size=000000  Align=00001  Fill=0000
    DATA              Offs=000000  Size=000000  Align=00001  Fill=0000
    ZEROPAGE          Offs=000000  Size=000000  Align=00001  Fill=0000
    NULL              Offs=000000  Size=000000  Align=00001  Fill=0000
../build/clib_rom.tmp.lib(_longminstr.o):
    CODE              Offs=0000F1  Size=000000  Align=00001  Fill=0000
    RODATA            Offs=000000  Size=00000C  Align=00001  Fill=0000
    BSS               Offs=000000  Size=000000  Align=00001  Fill=0000
    DATA              Offs=000000  Size=000000  Align=00001  Fill=0000
    ZEROPAGE          Offs=000000  Size=000000  Align=00001  Fill=0000
    NULL              Offs=000000  Size=000000  Align=00001  Fill=0000
../build/clib_rom.tmp.lib(tolower.o):
    CODE              Offs=0000F1  Size=000012  Align=00001  Fill=0000
    RODATA            Offs=00000C  Size=000000  Align=00001  Fill=0000
    BSS               Offs=000000  Size=000000  Align=00001  Fill=0000
    DATA              Offs=000000  Size=000000  Align=00001  Fill=0000
    ZEROPAGE          Offs=000000  Size=000000  Align=00001  Fill=0000
    NULL              Offs=000000  Size=000000  Align=00001  Fill=0000
../build/clib_rom.tmp.lib(toslong.o):
    CODE              Offs=000103  Size=000038  Align=00001  Fill=0000
    RODATA            Offs=00000C  Size=000000  Align=00001  Fill=0000
    BSS               Offs=000000  Size=000000  Align=00001  Fill=0000
    DATA              Offs=000000  Size=000000  Align=00001  Fill=0000
    ZEROPAGE          Offs=000000  Size=000000  Align=00001  Fill=0000
    NULL              Offs=000000  Size=000000  Align=00001  Fill=0000
../build/clib_rom.tmp.lib(iscntrl.o):
    CODE              Offs=00013B  Size=000008  Align=00001  Fill=0000
    RODATA            Offs=00000C  Size=000000  Align=00001  Fill=0000
    BSS               Offs=000000  Size=000000  Align=00001  Fill=0000
    DATA              Offs=000000  Size=000000  Align=00001  Fill=0000
    ZEROPAGE          Offs=000000  Size=000000  Align=00001  Fill=0000
    NULL              Offs=000000  Size=000000  Align=00001  Fill=0000
../build/clib_rom.tmp.lib(_imul8x8r16.o):
    CODE              Offs=000143  Size=000008  Align=00001  Fill=0000
    RODATA            Offs=00000C  Size=000000  Align=00001  Fill=0000
    BSS               Offs=000000  Size=000000  Align=00001  Fill=0000
    DATA              Offs=000000  Size=000000  Align=00001  Fill=0000
    ZEROPAGE          Offs=000000  Size=000000  Align=00001  Fill=0000
    NULL              Offs=000000  Size=000000  Align=00001  Fill=0000
../build/clib_rom.tmp.lib(strcspn.o):
    CODE              Offs=00014B  Size=00002D  Align=00001  Fill=0000
    RODATA            Offs=00000C  Size=000000  Align=00001  Fill=0000
    BSS               Offs=000000  Size=000000  Align=00001  Fill=0000
    DATA              Offs=000000  Size=000000  Align=00001  Fill=0000
    ZEROPAGE          Offs=000000  Size=000000  Align=00001  Fill=0000
    NULL              Offs=000000  Size=000000  Align=00001  Fill=0000
../build/clib_rom.tmp.lib(mul8.o):
    CODE              Offs=000178  Size=00003A  Align=00001  Fill=0000
    RODATA            Offs=00000C  Size=000000  Align=00001  Fill=0000
    BSS               Offs=000000  Size=000000  Align=00001  Fill=0000
    DATA              Offs=000000  Size=000000  Align=00001  Fill=0000
    ZEROPAGE          Offs=000000  Size=000000  Align=00001  Fill=0000
    NULL              Offs=000000  Size=000000  Align=00001  Fill=0000
../build/clib_rom.tmp.lib(gotox.o):
    CODE              Offs=0001B2  Size=000010  Align=00001  Fill=0000
    RODATA            Offs=00000C  Size=000000  Align=00001  Fill=0000
    BSS               Offs=000000  Size=000000  Align=00001  Fill=0000
    DATA              Offs=000000  Size=000000  Align=00001  Fill=0000
    ZEROPAGE          Offs=000000  Size=000000  Align=00001  Fill=0000
    NULL              Offs=000000  Size=000000  Align=00001  Fill=0000
../build/clib_rom.tmp.lib(incsp3.o):
    CODE              Offs=0001C2  Size=000005  Align=00001  Fill=0000
    RODATA            Offs=00000C  Size=000000  Align=00001  Fill=0000
    BSS               Offs=000000  Size=000000  Align=00001  Fill=0000
    DATA              Offs=000000  Size=000000  Align=00001  Fill=0000
    ZEROPAGE          Offs=000000  Size=000000  Align=00001  Fill=0000
    NULL              Offs=000000  Size=000000  Align=00001  Fill=0000
../build/clib_rom.tmp.lib(decax4.o):
    CODE              Offs=0001C7  Size=000007  Align=00001  Fill=0000
    RODATA            Offs=00000C  Size=000000  Align=00001  Fill=0000
    BSS               Offs=000000  Size=000000  Align=00001  Fill=0000
    DATA              Offs=000000  Size=000000  Align=00001  Fill=0000
    ZEROPAGE          Offs=000000  Size=000000  Align=00001  Fill=0000
    NULL              Offs=000000  Size=000000  Align=00001  Fill=0000
../build/clib_rom.tmp.lib(incax1.o):
    CODE              Offs=0001CE  Size=000007  Align=00001  Fill=0000
    RODATA            Offs=00000C  Size=000000  Align=00001  Fill=0000
    BSS               Offs=000000  Size=000000  Align=00001  Fill=0000
    DATA              Offs=000000  Size=000000  Align=00001  Fill=0000
    ZEROPAGE          Offs=000000  Size=000000  Align=00001  Fill=0000
    NULL              Offs=000000  Size=000000  Align=00001  Fill=0000
../build/clib_rom.tmp.lib(push2.o):
    CODE              Offs=0001D5  Size=000005  Align=00001  Fill=0000
    RODATA            Offs=00000C  Size=000000  Align=00001  Fill=0000
    BSS               Offs=000000  Size=000000  Align=00001  Fill=0000
    DATA              Offs=000000  Size=000000  Align=00001  Fill=0000
    ZEROPAGE          Offs=000000  Size=000000  Align=00001  Fill=0000
    NULL              Offs=000000  Size=000000  Align=00001  Fill=0000
../build/clib_rom.tmp.lib(umul8x8r16.o):
    CODE              Offs=0001DA  Size=000019  Align=00001  Fill=0000
    RODATA            Offs=00000C  Size=000000  Align=00001  Fill=0000
    BSS               Offs=000000  Size=000000  Align=00001  Fill=0000
    DATA              Offs=000000  Size=000000  Align=00001  Fill=0000
    ZEROPAGE          Offs=000000  Size=000000  Align=00001  Fill=0000
    NULL              Offs=000000  Size=000000  Align=00001  Fill=0000
../build/clib_rom.tmp.lib(lsubeqsp.o):
    CODE              Offs=0001F3  Size=000027  Align=00001  Fill=0000
    RODATA            Offs=00000C  Size=000000  Align=00001  Fill=0000
    BSS               Offs=000000  Size=000000  Align=00001  Fill=0000
    DATA              Offs=000000  Size=000000  Align=00001  Fill=0000
    ZEROPAGE          Offs=000000  Size=000000  Align=00001  Fill=0000
    NULL              Offs=000000  Size=000000  Align=00001  Fill=0000
../build/clib_rom.tmp.lib(isspace.o):
    CODE              Offs=00021A  Size=000008  Align=00001  Fill=0000
    RODATA            Offs=00000C  Size=000000  Align=00001  Fill=0000
    BSS               Offs=000000  Size=000000  Align=00001  Fill=0000
    DATA              Offs=000000  Size=000000  Align=00001  Fill=0000
    ZEROPAGE          Offs=000000  Size=000000  Align=00001  Fill=0000
    NULL              Offs=000000  Size=000000  Align=00001  Fill=0000
../build/clib_rom.tmp.lib(utscopy.o):
    CODE              Offs=000222  Size=000024  Align=00001  Fill=0000
    RODATA            Offs=00000C  Size=000005  Align=00001  Fill=0000
    BSS               Offs=000000  Size=000000  Align=00001  Fill=0000
    DATA              Offs=000000  Size=000000  Align=00001  Fill=0000
    ZEROPAGE          Offs=000000  Size=000000  Align=00001  Fill=0000
    NULL              Offs=000000  Size=000000  Align=00001  Fill=0000
../build/clib_rom.tmp.lib(decsp6.o):
    CODE              Offs=000246  Size=00000D  Align=00001  Fill=0000
    RODATA            Offs=000011  Size=000000  Align=00001  Fill=0000
    BSS               Offs=000000  Size=000000  Align=00001  Fill=0000
    DATA              Offs=000000  Size=000000  Align=00001  Fill=0000
    ZEROPAGE          Offs=000000  Size=000000  Align=00001  Fill=0000
    NULL              Offs=000000  Size=000000  Align=00001  Fill=0000
../build/clib_rom.tmp.lib(ldau0sp.o):
    CODE              Offs=000253  Size=000010  Align=00001  Fill=0000
    RODATA            Offs=000011  Size=000000  Align=00001  Fill=0000
    BSS               Offs=000000  Size=000000  Align=00001  Fill=0000
    DATA              Offs=000000  Size=000000  Align=00001  Fill=0000
    ZEROPAGE          Offs=000000  Size=000000  Align=00001  Fill=0000
    NULL              Offs=000000  Size=000000  Align=00001  Fill=0000
../build/clib_rom.tmp.lib(incaxy.o):
    CODE              Offs=000263  Size=00000B  Align=00001  Fill=0000
    RODATA            Offs=000011  Size=000000  Align=00001  Fill=0000
    BSS               Offs=000000  Size=000000  Align=00001  Fill=0000
    DATA              Offs=000000  Size=000000  Align=00001  Fill=0000
    ZEROPAGE          Offs=000000  Size=000000  Align=00001  Fill=0000
    NULL              Offs=000000  Size=000000  Align=00001  Fill=0000
../build/clib_rom.tmp.lib(regswap1.o):
    CODE              Offs=00026E  Size=00000B  Align=00001  Fill=0000
    RODATA            Offs=000011  Size=000000  Align=00001  Fill=0000
    BSS               Offs=000000  Size=000000  Align=00001  Fill=0000
    DATA              Offs=000000  Size=000000  Align=00001  Fill=0000
    ZEROPAGE          Offs=000000  Size=000000  Align=00001  Fill=0000
    NULL              Offs=000000  Size=000000  Align=00001  Fill=0000
../build/clib_rom.tmp.lib(pushlysp.o):
    CODE              Offs=000279  Size=000016  Align=00001  Fill=0000
    RODATA            Offs=000011  Size=000000  Align=00001  Fill=0000
    BSS               Offs=000000  Size=000000  Align=00001  Fill=0000
    DATA              Offs=000000  Size=000000  Align=00001  Fill=0000
    ZEROPAGE          Offs=000000  Size=000000  Align=00001  Fill=0000
    NULL              Offs=000000  Size=000000  Align=00001  Fill=0000
../build/clib_rom.tmp.lib(strstr.o):
    CODE              Offs=00028F  Size=000052  Align=00001  Fill=0000
    RODATA            Offs=000011  Size=000000  Align=00001  Fill=0000
    BSS               Offs=000000  Size=000000  Align=00001  Fill=0000
    DATA              Offs=000000  Size=000000  Align=00001  Fill=0000
    ZEROPAGE          Offs=000000  Size=000000  Align=00001  Fill=0000
    NULL              Offs=000000  Size=000000  Align=00001  Fill=0000
../build/clib_rom.tmp.lib(popptr1.o):
    CODE              Offs=0002E1  Size=00000E  Align=00001  Fill=0000
    RODATA            Offs=000011  Size=000000  Align=00001  Fill=0000
    BSS               Offs=000000  Size=000000  Align=00001  Fill=0000
    DATA              Offs=000000  Size=000000  Align=00001  Fill=0000
    ZEROPAGE          Offs=000000  Size=000000  Align=00001  Fill=0000
    NULL              Offs=000000  Size=000000  Align=00001  Fill=0000
../build/clib_rom.tmp.lib(linc.o):
    CODE              Offs=0002EF  Size=000011  Align=00001  Fill=0000
    RODATA            Offs=000011  Size=000000  Align=00001  Fill=0000
    BSS               Offs=000000  Size=000000  Align=00001  Fill=0000
    DATA              Offs=000000  Size=000000  Align=00001  Fill=0000
    ZEROPAGE          Offs=000000  Size=000000  Align=00001  Fill=0000
    NULL              Offs=000000  Size=000000  Align=00001  Fill=0000
../build/clib_rom.tmp.lib(push7.o):
    CODE              Offs=000300  Size=000005  Align=00001  Fill=0000
    RODATA            Offs=000011  Size=000000  Align=00001  Fill=0000
    BSS               Offs=000000  Size=000000  Align=00001  Fill=0000
    DATA              Offs=000000  Size=000000  Align=00001  Fill=0000
    ZEROPAGE          Offs=000000  Size=000000  Align=00001  Fill=0000
    NULL              Offs=000000  Size=000000  Align=00001  Fill=0000
../build/clib_rom.tmp.lib(oserror.o):
    CODE              Offs=000305  Size=000005  Align=00001  Fill=0000
    RODATA            Offs=000011  Size=000000  Align=00001  Fill=0000
    BSS               Offs=000000  Size=000000  Align=00001  Fill=0000
    DATA              Offs=000000  Size=000000  Align=00001  Fill=0000
    ZEROPAGE          Offs=000000  Size=000000  Align=00001  Fill=0000
    NULL              Offs=000000  Size=000000  Align=00001  Fill=0000
../build/clib_rom.tmp.lib(shrax3.o):
    CODE              Offs=00030A  Size=00000E  Align=00001  Fill=0000
    RODATA            Offs=000011  Size=000000  Align=00001  Fill=0000
    BSS               Offs=000000  Size=000000  Align=00001  Fill=0000
    DATA              Offs=000000  Size=000000  Align=00001  Fill=0000
    ZEROPAGE          Offs=000000  Size=000000  Align=00001  Fill=0000
    NULL              Offs=000000  Size=000000  Align=00001  Fill=0000
../build/clib_rom.tmp.lib(bpushbsp.o):
    CODE              Offs=000318  Size=000007  Align=00001  Fill=0000
    RODATA            Offs=000011  Size=000000  Align=00001  Fill=0000
    BSS               Offs=000000  Size=000000  Align=00001  Fill=0000
    DATA              Offs=000000  Size=000000  Align=00001  Fill=0000
    ZEROPAGE          Offs=000000  Size=000000  Align=00001  Fill=0000
    NULL              Offs=000000  Size=000000  Align=00001  Fill=0000
../build/clib_rom.tmp.lib(system.o):
    CODE              Offs=00031F  Size=000016  Align=00001  Fill=0000
    RODATA            Offs=000011  Size=000000  Align=00001  Fill=0000
    BSS               Offs=000000  Size=000000  Align=00001  Fill=0000
    DATA              Offs=000000  Size=000000  Align=00001  Fill=0000
    ZEROPAGE          Offs=000000  Size=000000  Align=00001  Fill=0000
    NULL              Offs=000000  Size=000000  Align=00001  Fill=0000
../build/clib_rom.tmp.lib(udiv32by16r16.o):
    CODE              Offs=000335  Size=000031  Align=00001  Fill=0000
    RODATA            Offs=000011  Size=000000  Align=00001  Fill=0000
    BSS               Offs=000000  Size=000000  Align=00001  Fill=0000
    DATA              Offs=000000  Size=000000  Align=00001  Fill=0000
    ZEROPAGE          Offs=000000  Size=000000  Align=00001  Fill=0000
    NULL              Offs=000000  Size=000000  Align=00001  Fill=0000
../build/clib_rom.tmp.lib(lrsub.o):
    CODE              Offs=000366  Size=000025  Align=00001  Fill=0000
    RODATA            Offs=000011  Size=000000  Align=00001  Fill=0000
    BSS               Offs=000000  Size=000000  Align=00001  Fill=0000
    DATA              Offs=000000  Size=000000  Align=00001  Fill=0000
    ZEROPAGE          Offs=000000  Size=000000  Align=00001  Fill=0000
    NULL              Offs=000000  Size=000000  Align=00001  Fill=0000
../build/clib_rom.tmp.lib(bcast.o):
    CODE              Offs=00038B  Size=00000C  Align=00001  Fill=0000
    RODATA            Offs=000011  Size=000000  Align=00001  Fill=0000
    BSS               Offs=000000  Size=000000  Align=00001  Fill=0000
    DATA              Offs=000000  Size=000000  Align=00001  Fill=0000
    ZEROPAGE          Offs=000000  Size=000000  Align=00001  Fill=0000
    NULL              Offs=000000  Size=000000  Align=00001  Fill=0000
../build/clib_rom.tmp.lib(_idiv32by16r16.o):
    CODE              Offs=000397  Size=00001A  Align=00001  Fill=0000
    RODATA            Offs=000011  Size=000000  Align=00001  Fill=0000
    BSS               Offs=000000  Size=000000  Align=00001  Fill=0000
    DATA              Offs=000000  Size=000000  Align=00001  Fill=0000
    ZEROPAGE          Offs=000000  Size=000000  Align=00001  Fill=0000
    NULL              Offs=000000  Size=000000  Align=00001  Fill=0000
../build/clib_rom.tmp.lib(print0.o):
    CODE              Offs=0003B1  Size=00000D  Align=00001  Fill=0000
    RODATA            Offs=000011  Size=000000  Align=00001  Fill=0000
    BSS               Offs=000000  Size=000000  Align=00001  Fill=0000
    DATA              Offs=000000  Size=000000  Align=00001  Fill=0000
    ZEROPAGE          Offs=000000  Size=000000  Align=00001  Fill=0000
    NULL              Offs=000000  Size=000000  Align=00001  Fill=0000
../build/clib_rom.tmp.lib(pushb.o):
    CODE              Offs=0003BE  Size=000016  Align=00001  Fill=0000
    RODATA            Offs=000011  Size=000000  Align=00001  Fill=0000
    BSS               Offs=000000  Size=000000  Align=00001  Fill=0000
    DATA              Offs=000000  Size=000000  Align=00001  Fill=0000
    ZEROPAGE          Offs=000000  Size=000000  Align=00001  Fill=0000
    NULL              Offs=000000  Size=000000  Align=00001  Fill=0000
../build/clib_rom.tmp.lib(push6.o):
    CODE              Offs=0003D4  Size=000005  Align=00001  Fill=0000
    RODATA            Offs=000011  Size=000000  Align=00001  Fill=0000
    BSS               Offs=000000  Size=000000  Align=00001  Fill=0000
    DATA              Offs=000000  Size=000000  Align=00001  Fill=0000
    ZEROPAGE          Offs=000000  Size=000000  Align=00001  Fill=0000
    NULL              Offs=000000  Size=000000  Align=00001  Fill=0000
../build/clib_rom.tmp.lib(ge.o):
    CODE              Offs=0003D9  Size=00000A  Align=00001  Fill=0000
    RODATA            Offs=000011  Size=000000  Align=00001  Fill=0000
    BSS               Offs=000000  Size=000000  Align=00001  Fill=0000
    DATA              Offs=000000  Size=000000  Align=00001  Fill=0000
    ZEROPAGE          Offs=000000  Size=000000  Align=00001  Fill=0000
    NULL              Offs=000000  Size=000000  Align=00001  Fill=0000
../build/clib_rom.tmp.lib(decaxy.o):
    CODE              Offs=0003E3  Size=000009  Align=00001  Fill=0000
    RODATA            Offs=000011  Size=000000  Align=00001  Fill=0000
    BSS               Offs=000000  Size=000000  Align=00001  Fill=0000
    DATA              Offs=000000  Size=000000  Align=00001  Fill=0000
    ZEROPAGE          Offs=000000  Size=000000  Align=00001  Fill=0000
    NULL              Offs=000000  Size=000000  Align=00001  Fill=0000
../build/clib_rom.tmp.lib(makebool.o):
    CODE              Offs=0003EC  Size=00002C  Align=00001  Fill=0000
    RODATA            Offs=000011  Size=000000  Align=00001  Fill=0000
    BSS               Offs=000000  Size=000000  Align=00001  Fill=0000
    DATA              Offs=000000  Size=000000  Align=00001  Fill=0000
    ZEROPAGE          Offs=000000  Size=000000  Align=00001  Fill=0000
    NULL              Offs=000000  Size=000000  Align=00001  Fill=0000
../build/clib_rom.tmp.lib(xor.o):
    CODE              Offs=000418  Size=000012  Align=00001  Fill=0000
    RODATA            Offs=000011  Size=000000  Align=00001  Fill=0000
    BSS               Offs=000000  Size=000000  Align=00001  Fill=0000
    DATA              Offs=000000  Size=000000  Align=00001  Fill=0000
    ZEROPAGE          Offs=000000  Size=000000  Align=00001  Fill=0000
    NULL              Offs=000000  Size=000000  Align=00001  Fill=0000
../build/clib_rom.tmp.lib(stricmp.o):
    CODE              Offs=00042A  Size=000043  Align=00001  Fill=0000
    RODATA            Offs=000011  Size=000000  Align=00001  Fill=0000
    BSS               Offs=000000  Size=000000  Align=00001  Fill=0000
    DATA              Offs=000000  Size=000000  Align=00001  Fill=0000
    ZEROPAGE          Offs=000000  Size=000000  Align=00001  Fill=0000
    NULL              Offs=000000  Size=000000  Align=00001  Fill=0000
../build/clib_rom.tmp.lib(imul16x16r32.o):
    CODE              Offs=00046D  Size=00002B  Align=00001  Fill=0000
    RODATA            Offs=000011  Size=000000  Align=00001  Fill=0000
    BSS               Offs=000000  Size=000000  Align=00001  Fill=0000
    DATA              Offs=000000  Size=000000  Align=00001  Fill=0000
    ZEROPAGE          Offs=000000  Size=000000  Align=00001  Fill=0000
    NULL              Offs=000000  Size=000000  Align=00001  Fill=0000
../build/clib_rom.tmp.lib(gotoxy.o):
    CODE              Offs=000498  Size=000010  Align=00001  Fill=0000
    RODATA            Offs=000011  Size=000000  Align=00001  Fill=0000
    BSS               Offs=000000  Size=000000  Align=00001  Fill=0000
    DATA              Offs=000000  Size=000000  Align=00001  Fill=0000
    ZEROPAGE          Offs=000000  Size=000000  Align=00001  Fill=0000
    NULL              Offs=000000  Size=000000  Align=00001  Fill=0000
../build/clib_rom.tmp.lib(along.o):
    CODE              Offs=0004A8  Size=00000D  Align=00001  Fill=0000
    RODATA            Offs=000011  Size=000000  Align=00001  Fill=0000
    BSS               Offs=000000  Size=000000  Align=00001  Fill=0000
    DATA              Offs=000000  Size=000000  Align=00001  Fill=0000
    ZEROPAGE          Offs=000000  Size=000000  Align=00001  Fill=0000
    NULL              Offs=000000  Size=000000  Align=00001  Fill=0000
../build/clib_rom.tmp.lib(cclear.o):
    CODE              Offs=0004B5  Size=000016  Align=00001  Fill=0000
    RODATA            Offs=000011  Size=000000  Align=00001  Fill=0000
    BSS               Offs=000000  Size=000000  Align=00001  Fill=0000
    DATA              Offs=000000  Size=000000  Align=00001  Fill=0000
    ZEROPAGE          Offs=000000  Size=000000  Align=00001  Fill=0000
    NULL              Offs=000000  Size=000000  Align=00001  Fill=0000
../build/clib_rom.tmp.lib(shelp.o):
    CODE              Offs=0004CB  Size=000020  Align=00001  Fill=0000
    RODATA            Offs=000011  Size=000000  Align=00001  Fill=0000
    BSS               Offs=000000  Size=000000  Align=00001  Fill=0000
    DATA              Offs=000000  Size=000000  Align=00001  Fill=0000
    ZEROPAGE          Offs=000000  Size=000000  Align=00001  Fill=0000
    NULL              Offs=000000  Size=000000  Align=00001  Fill=0000
../build/clib_rom.tmp.lib(asreax4.o):
    CODE              Offs=0004EB  Size=000015  Align=00001  Fill=0000
    RODATA            Offs=000011  Size=000000  Align=00001  Fill=0000
    BSS               Offs=000000  Size=000000  Align=00001  Fill=0000
    DATA              Offs=000000  Size=000000  Align=00001  Fill=0000
    ZEROPAGE          Offs=000000  Size=000000  Align=00001  Fill=0000
    NULL              Offs=000000  Size=000000  Align=00001  Fill=0000
../build/clib_rom.tmp.lib(_hextab.o):
    CODE              Offs=000500  Size=000000  Align=00001  Fill=0000
    RODATA            Offs=000011  Size=000010  Align=00001  Fill=0000
    BSS               Offs=000000  Size=000000  Align=00001  Fill=0000
    DATA              Offs=000000  Size=000000  Align=00001  Fill=0000
    ZEROPAGE          Offs=000000  Size=000000  Align=00001  Fill=0000
    NULL              Offs=000000  Size=000000  Align=00001  Fill=0000
../build/clib_rom.tmp.lib(asrax3.o):
    CODE              Offs=000500  Size=000014  Align=00001  Fill=0000
    RODATA            Offs=000021  Size=000000  Align=00001  Fill=0000
    BSS               Offs=000000  Size=000000  Align=00001  Fill=0000
    DATA              Offs=000000  Size=000000  Align=00001  Fill=0000
    ZEROPAGE          Offs=000000  Size=000000  Align=00001  Fill=0000
    NULL              Offs=000000  Size=000000  Align=00001  Fill=0000
../build/clib_rom.tmp.lib(leq.o):
    CODE              Offs=000514  Size=000006  Align=00001  Fill=0000
    RODATA            Offs=000021  Size=000000  Align=00001  Fill=0000
    BSS               Offs=000000  Size=000000  Align=00001  Fill=0000
    DATA              Offs=000000  Size=000000  Align=00001  Fill=0000
    ZEROPAGE          Offs=000000  Size=000000  Align=00001  Fill=0000
    NULL              Offs=000000  Size=000000  Align=00001  Fill=0000
../build/clib_rom.tmp.lib(incsp8.o):
    CODE              Offs=00051A  Size=000005  Align=00001  Fill=0000
    RODATA            Offs=000021  Size=000000  Align=00001  Fill=0000
    BSS               Offs=000000  Size=000000  Align=00001  Fill=0000
    DATA              Offs=000000  Size=000000  Align=00001  Fill=0000
    ZEROPAGE          Offs=000000  Size=000000  Align=00001  Fill=0000
    NULL              Offs=000000  Size=000000  Align=00001  Fill=0000
../build/clib_rom.tmp.lib(ne.o):
    CODE              Offs=00051F  Size=00000A  Align=00001  Fill=0000
    RODATA            Offs=000021  Size=000000  Align=00001  Fill=0000
    BSS               Offs=000000  Size=000000  Align=00001  Fill=0000
    DATA              Offs=000000  Size=000000  Align=00001  Fill=0000
    ZEROPAGE          Offs=000000  Size=000000  Align=00001  Fill=0000
    NULL              Offs=000000  Size=000000  Align=00001  Fill=0000
../build/clib_rom.tmp.lib(regswap2.o):
    CODE              Offs=000529  Size=000016  Align=00001  Fill=0000
    RODATA            Offs=000021  Size=000000  Align=00001  Fill=0000
    BSS               Offs=000000  Size=000000  Align=00001  Fill=0000
    DATA              Offs=000000  Size=000000  Align=00001  Fill=0000
    ZEROPAGE          Offs=000000  Size=000000  Align=00001  Fill=0000
    NULL              Offs=000000  Size=000000  Align=00001  Fill=0000
../build/clib_rom.tmp.lib(_umul8x8r16.o):
    CODE              Offs=00053F  Size=000008  Align=00001  Fill=0000
    RODATA            Offs=000021  Size=000000  Align=00001  Fill=0000
    BSS               Offs=000000  Size=000000  Align=00001  Fill=0000
    DATA              Offs=000000  Size=000000  Align=00001  Fill=0000
    ZEROPAGE          Offs=000000  Size=000000  Align=00001  Fill=0000
    NULL              Offs=000000  Size=000000  Align=00001  Fill=0000
../build/clib_rom.tmp.lib(asr.o):
    CODE              Offs=000547  Size=00003C  Align=00001  Fill=0000
    RODATA            Offs=000021  Size=000000  Align=00001  Fill=0000
    BSS               Offs=000000  Size=000000  Align=00001  Fill=0000
    DATA              Offs=000000  Size=000000  Align=00001  Fill=0000
    ZEROPAGE          Offs=000000  Size=000000  Align=00001  Fill=0000
    NULL              Offs=000000  Size=000000  Align=00001  Fill=0000
../build/clib_rom.tmp.lib(luge.o):
    CODE              Offs=000583  Size=000006  Align=00001  Fill=0000
    RODATA            Offs=000021  Size=000000  Align=00001  Fill=0000
    BSS               Offs=000000  Size=000000  Align=00001  Fill=0000
    DATA              Offs=000000  Size=000000  Align=00001  Fill=0000
    ZEROPAGE          Offs=000000  Size=000000  Align=00001  Fill=0000
    NULL              Offs=000000  Size=000000  Align=00001  Fill=0000
../build/clib_rom.tmp.lib(mulax7.o):
    CODE              Offs=000589  Size=000019  Align=00001  Fill=0000
    RODATA            Offs=000021  Size=000000  Align=00001  Fill=0000
    BSS               Offs=000000  Size=000000  Align=00001  Fill=0000
    DATA              Offs=000000  Size=000000  Align=00001  Fill=0000
    ZEROPAGE          Offs=000000  Size=000000  Align=00001  Fill=0000
    NULL              Offs=000000  Size=000000  Align=00001  Fill=0000
../build/clib_rom.tmp.lib(_umul16x8r32.o):
    CODE              Offs=0005A2  Size=00000C  Align=00001  Fill=0000
    RODATA            Offs=000021  Size=000000  Align=00001  Fill=0000
    BSS               Offs=000000  Size=000000  Align=00001  Fill=0000
    DATA              Offs=000000  Size=000000  Align=00001  Fill=0000
    ZEROPAGE          Offs=000000  Size=000000  Align=00001  Fill=0000
    NULL              Offs=000000  Size=000000  Align=00001  Fill=0000
../build/clib_rom.tmp.lib(printhex.o):
    CODE              Offs=0005AE  Size=000022  Align=00001  Fill=0000
    RODATA            Offs=000021  Size=000000  Align=00001  Fill=0000
    BSS               Offs=000000  Size=000000  Align=00001  Fill=0000
    DATA              Offs=000000  Size=000000  Align=00001  Fill=0000
    ZEROPAGE          Offs=000000  Size=000000  Align=00001  Fill=0000
    NULL              Offs=000000  Size=000000  Align=00001  Fill=0000
../build/clib_rom.tmp.lib(steaxsp.o):
    CODE              Offs=0005D0  Size=000015  Align=00001  Fill=0000
    RODATA            Offs=000021  Size=000000  Align=00001  Fill=0000
    BSS               Offs=000000  Size=000000  Align=00001  Fill=0000
    DATA              Offs=000000  Size=000000  Align=00001  Fill=0000
    ZEROPAGE          Offs=000000  Size=000000  Align=00001  Fill=0000
    NULL              Offs=000000  Size=000000  Align=00001  Fill=0000
../build/clib_rom.tmp.lib(ctype.o):
    CODE              Offs=0005E5  Size=000000  Align=00001  Fill=0000
    RODATA            Offs=000021  Size=00008B  Align=00001  Fill=0000
    BSS               Offs=000000  Size=000000  Align=00001  Fill=0000
    DATA              Offs=000000  Size=000000  Align=00001  Fill=0000
    ZEROPAGE          Offs=000000  Size=000000  Align=00001  Fill=0000
    NULL              Offs=000000  Size=000000  Align=00001  Fill=0000
../build/clib_rom.tmp.lib(or.o):
    CODE              Offs=0005E5  Size=000012  Align=00001  Fill=0000
    RODATA            Offs=0000AC  Size=000000  Align=00001  Fill=0000
    BSS               Offs=000000  Size=000000  Align=00001  Fill=0000
    DATA              Offs=000000  Size=000000  Align=00001  Fill=0000
    ZEROPAGE          Offs=000000  Size=000000  Align=00001  Fill=0000
    NULL              Offs=000000  Size=000000  Align=00001  Fill=0000
../build/clib_rom.tmp.lib(osfile_store_exec.o):
    CODE              Offs=0005F7  Size=000006  Align=00001  Fill=0000
    RODATA            Offs=0000AC  Size=000000  Align=00001  Fill=0000
    BSS               Offs=000000  Size=000000  Align=00001  Fill=0000
    DATA              Offs=000000  Size=000000  Align=00001  Fill=0000
    ZEROPAGE          Offs=000000  Size=000000  Align=00001  Fill=0000
    NULL              Offs=000000  Size=000000  Align=00001  Fill=0000
../build/clib_rom.tmp.lib(push5.o):
    CODE              Offs=0005FD  Size=000005  Align=00001  Fill=0000
    RODATA            Offs=0000AC  Size=000000  Align=00001  Fill=0000
    BSS               Offs=000000  Size=000000  Align=00001  Fill=0000
    DATA              Offs=000000  Size=000000  Align=00001  Fill=0000
    ZEROPAGE          Offs=000000  Size=000000  Align=00001  Fill=0000
    NULL              Offs=000000  Size=000000  Align=00001  Fill=0000
../build/clib_rom.tmp.lib(axlong.o):
    CODE              Offs=000602  Size=00000D  Align=00001  Fill=0000
    RODATA            Offs=0000AC  Size=000000  Align=00001  Fill=0000
    BSS               Offs=000000  Size=000000  Align=00001  Fill=0000
    DATA              Offs=000000  Size=000000  Align=00001  Fill=0000
    ZEROPAGE          Offs=000000  Size=000000  Align=00001  Fill=0000
    NULL              Offs=000000  Size=000000  Align=00001  Fill=0000
../build/clib_rom.tmp.lib(pushax.o):
    CODE              Offs=00060F  Size=00001A  Align=00001  Fill=0000
    RODATA            Offs=0000AC  Size=000000  Align=00001  Fill=0000
    BSS               Offs=000000  Size=000000  Align=00001  Fill=0000
    DATA              Offs=000000  Size=000000  Align=00001  Fill=0000
    ZEROPAGE          Offs=000000  Size=000000  Align=00001  Fill=0000
    NULL              Offs=000000  Size=000000  Align=00001  Fill=0000
../build/clib_rom.tmp.lib(memcpy.o):
    CODE              Offs=000629  Size=00003C  Align=00001  Fill=0000
    RODATA            Offs=0000AC  Size=000000  Align=00001  Fill=0000
    BSS               Offs=000000  Size=000000  Align=00001  Fill=0000
    DATA              Offs=000000  Size=000000  Align=00001  Fill=0000
    ZEROPAGE          Offs=000000  Size=000000  Align=00001  Fill=0000
    NULL              Offs=000000  Size=000000  Align=00001  Fill=0000
../build/clib_rom.tmp.lib(leaaxsp.o):
    CODE              Offs=000665  Size=00000C  Align=00001  Fill=0000
    RODATA            Offs=0000AC  Size=000000  Align=00001  Fill=0000
    BSS               Offs=000000  Size=000000  Align=00001  Fill=0000
    DATA              Offs=000000  Size=000000  Align=00001  Fill=0000
    ZEROPAGE          Offs=000000  Size=000000  Align=00001  Fill=0000
    NULL              Offs=000000  Size=000000  Align=00001  Fill=0000
../build/clib_rom.tmp.lib(steaxspi.o):
    CODE              Offs=000671  Size=000022  Align=00001  Fill=0000
    RODATA            Offs=0000AC  Size=000000  Align=00001  Fill=0000
    BSS               Offs=000000  Size=000000  Align=00001  Fill=0000
    DATA              Offs=000000  Size=000000  Align=00001  Fill=0000
    ZEROPAGE          Offs=000000  Size=000000  Align=00001  Fill=0000
    NULL              Offs=000000  Size=000000  Align=00001  Fill=0000
../build/clib_rom.tmp.lib(decax2.o):
    CODE              Offs=000693  Size=000007  Align=00001  Fill=0000
    RODATA            Offs=0000AC  Size=000000  Align=00001  Fill=0000
    BSS               Offs=000000  Size=000000  Align=00001  Fill=0000
    DATA              Offs=000000  Size=000000  Align=00001  Fill=0000
    ZEROPAGE          Offs=000000  Size=000000  Align=00001  Fill=0000
    NULL              Offs=000000  Size=000000  Align=00001  Fill=0000
../build/clib_rom.tmp.lib(strcat.o):
    CODE              Offs=00069A  Size=000031  Align=00001  Fill=0000
    RODATA            Offs=0000AC  Size=000000  Align=00001  Fill=0000
    BSS               Offs=000000  Size=000000  Align=00001  Fill=0000
    DATA              Offs=000000  Size=000000  Align=00001  Fill=0000
    ZEROPAGE          Offs=000000  Size=000000  Align=00001  Fill=0000
    NULL              Offs=000000  Size=000000  Align=00001  Fill=0000
../build/clib_rom.tmp.lib(ldaxi.o):
    CODE              Offs=0006CB  Size=00000D  Align=00001  Fill=0000
    RODATA            Offs=0000AC  Size=000000  Align=00001  Fill=0000
    BSS               Offs=000000  Size=000000  Align=00001  Fill=0000
    DATA              Offs=000000  Size=000000  Align=00001  Fill=0000
    ZEROPAGE          Offs=000000  Size=000000  Align=00001  Fill=0000
    NULL              Offs=000000  Size=000000  Align=00001  Fill=0000
../build/clib_rom.tmp.lib(isalnum.o):
    CODE              Offs=0006D8  Size=000008  Align=00001  Fill=0000
    RODATA            Offs=0000AC  Size=000000  Align=00001  Fill=0000
    BSS               Offs=000000  Size=000000  Align=00001  Fill=0000
    DATA              Offs=000000  Size=000000  Align=00001  Fill=0000
    ZEROPAGE          Offs=000000  Size=000000  Align=00001  Fill=0000
    NULL              Offs=000000  Size=000000  Align=00001  Fill=0000
../build/clib_rom.tmp.lib(decsp7.o):
    CODE              Offs=0006E0  Size=00000D  Align=00001  Fill=0000
    RODATA            Offs=0000AC  Size=000000  Align=00001  Fill=0000
    BSS               Offs=000000  Size=000000  Align=00001  Fill=0000
    DATA              Offs=000000  Size=000000  Align=00001  Fill=0000
    ZEROPAGE          Offs=000000  Size=000000  Align=00001  Fill=0000
    NULL              Offs=000000  Size=000000  Align=00001  Fill=0000
../build/clib_rom.tmp.lib(addeqsp.o):
    CODE              Offs=0006ED  Size=000011  Align=00001  Fill=0000
    RODATA            Offs=0000AC  Size=000000  Align=00001  Fill=0000
    BSS               Offs=000000  Size=000000  Align=00001  Fill=0000
    DATA              Offs=000000  Size=000000  Align=00001  Fill=0000
    ZEROPAGE          Offs=000000  Size=000000  Align=00001  Fill=0000
    NULL              Offs=000000  Size=000000  Align=00001  Fill=0000
../build/clib_rom.tmp.lib(ldaui.o):
    CODE              Offs=0006FE  Size=000009  Align=00001  Fill=0000
    RODATA            Offs=0000AC  Size=000000  Align=00001  Fill=0000
    BSS               Offs=000000  Size=000000  Align=00001  Fill=0000
    DATA              Offs=000000  Size=000000  Align=00001  Fill=0000
    ZEROPAGE          Offs=000000  Size=000000  Align=00001  Fill=0000
    NULL              Offs=000000  Size=000000  Align=00001  Fill=0000
../build/clib_rom.tmp.lib(shrax4.o):
    CODE              Offs=000707  Size=000011  Align=00001  Fill=0000
    RODATA            Offs=0000AC  Size=000000  Align=00001  Fill=0000
    BSS               Offs=000000  Size=000000  Align=00001  Fill=0000
    DATA              Offs=000000  Size=000000  Align=00001  Fill=0000
    ZEROPAGE          Offs=000000  Size=000000  Align=00001  Fill=0000
    NULL              Offs=000000  Size=000000  Align=00001  Fill=0000
../build/clib_rom.tmp.lib(strncmp.o):
    CODE              Offs=000718  Size=000039  Align=00001  Fill=0000
    RODATA            Offs=0000AC  Size=000000  Align=00001  Fill=0000
    BSS               Offs=000000  Size=000000  Align=00001  Fill=0000
    DATA              Offs=000000  Size=000000  Align=00001  Fill=0000
    ZEROPAGE          Offs=000000  Size=000000  Align=00001  Fill=0000
    NULL              Offs=000000  Size=000000  Align=00001  Fill=0000
../build/clib_rom.tmp.lib(decax7.o):
    CODE              Offs=000751  Size=000007  Align=00001  Fill=0000
    RODATA            Offs=0000AC  Size=000000  Align=00001  Fill=0000
    BSS               Offs=000000  Size=000000  Align=00001  Fill=0000
    DATA              Offs=000000  Size=000000  Align=00001  Fill=0000
    ZEROPAGE          Offs=000000  Size=000000  Align=00001  Fill=0000
    NULL              Offs=000000  Size=000000  Align=00001  Fill=0000
../build/clib_rom.tmp.lib(strncpy.o):
    CODE              Offs=000758  Size=000044  Align=00001  Fill=0000
    RODATA            Offs=0000AC  Size=000000  Align=00001  Fill=0000
    BSS               Offs=000000  Size=000000  Align=00001  Fill=0000
    DATA              Offs=000000  Size=000000  Align=00001  Fill=0000
    ZEROPAGE          Offs=000000  Size=000000  Align=00001  Fill=0000
    NULL              Offs=000000  Size=000000  Align=00001  Fill=0000
../build/clib_rom.tmp.lib(enter.o):
    CODE              Offs=00079C  Size=00000E  Align=00001  Fill=0000
    RODATA            Offs=0000AC  Size=000000  Align=00001  Fill=0000
    BSS               Offs=000000  Size=000000  Align=00001  Fill=0000
    DATA              Offs=000000  Size=000000  Align=00001  Fill=0000
    ZEROPAGE          Offs=000000  Size=000000  Align=00001  Fill=0000
    NULL              Offs=000000  Size=000000  Align=00001  Fill=0000
../build/clib_rom.tmp.lib(gotoy.o):
    CODE              Offs=0007AA  Size=000010  Align=00001  Fill=0000
    RODATA            Offs=0000AC  Size=000000  Align=00001  Fill=0000
    BSS               Offs=000000  Size=000000  Align=00001  Fill=0000
    DATA              Offs=000000  Size=000000  Align=00001  Fill=0000
    ZEROPAGE          Offs=000000  Size=000000  Align=00001  Fill=0000
    NULL              Offs=000000  Size=000000  Align=00001  Fill=0000
../build/clib_rom.tmp.lib(decax8.o):
    CODE              Offs=0007BA  Size=000007  Align=00001  Fill=0000
    RODATA            Offs=0000AC  Size=000000  Align=00001  Fill=0000
    BSS               Offs=000000  Size=000000  Align=00001  Fill=0000
    DATA              Offs=000000  Size=000000  Align=00001  Fill=0000
    ZEROPAGE          Offs=000000  Size=000000  Align=00001  Fill=0000
    NULL              Offs=000000  Size=000000  Align=00001  Fill=0000
../build/clib_rom.tmp.lib(staxspi.o):
    CODE              Offs=0007C1  Size=00001B  Align=00001  Fill=0000
    RODATA            Offs=0000AC  Size=000000  Align=00001  Fill=0000
    BSS               Offs=000000  Size=000000  Align=00001  Fill=0000
    DATA              Offs=000000  Size=000000  Align=00001  Fill=0000
    ZEROPAGE          Offs=000000  Size=000000  Align=00001  Fill=0000
    NULL              Offs=000000  Size=000000  Align=00001  Fill=0000
../build/clib_rom.tmp.lib(errormsg.o):
    CODE              Offs=0007DC  Size=000000  Align=00001  Fill=0000
    RODATA            Offs=0000AC  Size=000174  Align=00001  Fill=0000
    BSS               Offs=000000  Size=000000  Align=00001  Fill=0000
    DATA              Offs=000000  Size=000000  Align=00001  Fill=0000
    ZEROPAGE          Offs=000000  Size=000000  Align=00001  Fill=0000
    NULL              Offs=000000  Size=000000  Align=00001  Fill=0000
../build/clib_rom.tmp.lib(icmp.o):
    CODE              Offs=0007DC  Size=00002E  Align=00001  Fill=0000
    RODATA            Offs=000220  Size=000000  Align=00001  Fill=0000
    BSS               Offs=000000  Size=000000  Align=00001  Fill=0000
    DATA              Offs=000000  Size=000000  Align=00001  Fill=0000
    ZEROPAGE          Offs=000000  Size=000000  Align=00001  Fill=0000
    NULL              Offs=000000  Size=000000  Align=00001  Fill=0000
../build/clib_rom.tmp.lib(asreax1.o):
    CODE              Offs=00080A  Size=000010  Align=00001  Fill=0000
    RODATA            Offs=000220  Size=000000  Align=00001  Fill=0000
    BSS               Offs=000000  Size=000000  Align=00001  Fill=0000
    DATA              Offs=000000  Size=000000  Align=00001  Fill=0000
    ZEROPAGE          Offs=000000  Size=000000  Align=00001  Fill=0000
    NULL              Offs=000000  Size=000000  Align=00001  Fill=0000
../build/clib_rom.tmp.lib(shreax2.o):
    CODE              Offs=00081A  Size=000013  Align=00001  Fill=0000
    RODATA            Offs=000220  Size=000000  Align=00001  Fill=0000
    BSS               Offs=000000  Size=000000  Align=00001  Fill=0000
    DATA              Offs=000000  Size=000000  Align=00001  Fill=0000
    ZEROPAGE          Offs=000000  Size=000000  Align=00001  Fill=0000
    NULL              Offs=000000  Size=000000  Align=00001  Fill=0000
../build/clib_rom.tmp.lib(laddeqsp.o):
    CODE              Offs=00082D  Size=000023  Align=00001  Fill=0000
    RODATA            Offs=000220  Size=000000  Align=00001  Fill=0000
    BSS               Offs=000000  Size=000000  Align=00001  Fill=0000
    DATA              Offs=000000  Size=000000  Align=00001  Fill=0000
    ZEROPAGE          Offs=000000  Size=000000  Align=00001  Fill=0000
    NULL              Offs=000000  Size=000000  Align=00001  Fill=0000
../build/clib_rom.tmp.lib(osfile_alloc_block.o):
    CODE              Offs=000850  Size=000006  Align=00001  Fill=0000
    RODATA            Offs=000220  Size=000000  Align=00001  Fill=0000
    BSS               Offs=000000  Size=000000  Align=00001  Fill=0000
    DATA              Offs=000000  Size=000000  Align=00001  Fill=0000
    ZEROPAGE          Offs=000000  Size=000000  Align=00001  Fill=0000
    NULL              Offs=000000  Size=000000  Align=00001  Fill=0000
../build/clib_rom.tmp.lib(laddeq.o):
    CODE              Offs=000856  Size=00002D  Align=00001  Fill=0000
    RODATA            Offs=000220  Size=000000  Align=00001  Fill=0000
    BSS               Offs=000000  Size=000000  Align=00001  Fill=0000
    DATA              Offs=000000  Size=000000  Align=00001  Fill=0000
    ZEROPAGE          Offs=000000  Size=000000  Align=00001  Fill=0000
    NULL              Offs=000000  Size=000000  Align=00001  Fill=0000
../build/clib_rom.tmp.lib(aslax4.o):
    CODE              Offs=000883  Size=000011  Align=00001  Fill=0000
    RODATA            Offs=000220  Size=000000  Align=00001  Fill=0000
    BSS               Offs=000000  Size=000000  Align=00001  Fill=0000
    DATA              Offs=000000  Size=000000  Align=00001  Fill=0000
    ZEROPAGE          Offs=000000  Size=000000  Align=00001  Fill=0000
    NULL              Offs=000000  Size=000000  Align=00001  Fill=0000
../build/clib_rom.tmp.lib(osfile_store_load.o):
    CODE              Offs=000894  Size=000006  Align=00001  Fill=0000
    RODATA            Offs=000220  Size=000000  Align=00001  Fill=0000
    BSS               Offs=000000  Size=000000  Align=00001  Fill=0000
    DATA              Offs=000000  Size=000000  Align=00001  Fill=0000
    ZEROPAGE          Offs=000000  Size=000000  Align=00001  Fill=0000
    NULL              Offs=000000  Size=000000  Align=00001  Fill=0000
../build/clib_rom.tmp.lib(shrax1.o):
    CODE              Offs=00089A  Size=000008  Align=00001  Fill=0000
    RODATA            Offs=000220  Size=000000  Align=00001  Fill=0000
    BSS               Offs=000000  Size=000000  Align=00001  Fill=0000
    DATA              Offs=000000  Size=000000  Align=00001  Fill=0000
    ZEROPAGE          Offs=000000  Size=000000  Align=00001  Fill=0000
    NULL              Offs=000000  Size=000000  Align=00001  Fill=0000
../build/clib_rom.tmp.lib(zeropage.o):
    CODE              Offs=0008A2  Size=000000  Align=00001  Fill=0000
    RODATA            Offs=000220  Size=000000  Align=00001  Fill=0000
    BSS               Offs=000000  Size=000000  Align=00001  Fill=0000
    DATA              Offs=000000  Size=000000  Align=00001  Fill=0000
    ZEROPAGE          Offs=000000  Size=00001A  Align=00001  Fill=0000
    NULL              Offs=000000  Size=000000  Align=00001  Fill=0000
../build/clib_rom.tmp.lib(decax3.o):
    CODE              Offs=0008A2  Size=000007  Align=00001  Fill=0000
    RODATA            Offs=000220  Size=000000  Align=00001  Fill=0000
    BSS               Offs=000000  Size=000000  Align=00001  Fill=0000
    DATA              Offs=000000  Size=000000  Align=00001  Fill=0000
    ZEROPAGE          Offs=00001A  Size=000000  Align=00001  Fill=0000
    NULL              Offs=000000  Size=000000  Align=00001  Fill=0000
../build/clib_rom.tmp.lib(mod.o):
    CODE              Offs=0008A9  Size=000011  Align=00001  Fill=0000
    RODATA            Offs=000220  Size=000000  Align=00001  Fill=0000
    BSS               Offs=000000  Size=000000  Align=00001  Fill=0000
    DATA              Offs=000000  Size=000000  Align=00001  Fill=0000
    ZEROPAGE          Offs=00001A  Size=000000  Align=00001  Fill=0000
    NULL              Offs=000000  Size=000000  Align=00001  Fill=0000
../build/clib_rom.tmp.lib(itoa.o):
    CODE              Offs=0008BA  Size=000094  Align=00001  Fill=0000
    RODATA            Offs=000220  Size=000007  Align=00001  Fill=0000
    BSS               Offs=000000  Size=000000  Align=00001  Fill=0000
    DATA              Offs=000000  Size=000000  Align=00001  Fill=0000
    ZEROPAGE          Offs=00001A  Size=000000  Align=00001  Fill=0000
    NULL              Offs=000000  Size=000000  Align=00001  Fill=0000
../build/clib_rom.tmp.lib(le.o):
    CODE              Offs=00094E  Size=00000A  Align=00001  Fill=0000
    RODATA            Offs=000227  Size=000000  Align=00001  Fill=0000
    BSS               Offs=000000  Size=000000  Align=00001  Fill=0000
    DATA              Offs=000000  Size=000000  Align=00001  Fill=0000
    ZEROPAGE          Offs=00001A  Size=000000  Align=00001  Fill=0000
    NULL              Offs=000000  Size=000000  Align=00001  Fill=0000
../build/clib_rom.tmp.lib(aslax3.o):
    CODE              Offs=000958  Size=00000E  Align=00001  Fill=0000
    RODATA            Offs=000227  Size=000000  Align=00001  Fill=0000
    BSS               Offs=000000  Size=000000  Align=00001  Fill=0000
    DATA              Offs=000000  Size=000000  Align=00001  Fill=0000
    ZEROPAGE          Offs=00001A  Size=000000  Align=00001  Fill=0000
    NULL              Offs=000000  Size=000000  Align=00001  Fill=0000
../build/clib_rom.tmp.lib(umod.o):
    CODE              Offs=000966  Size=000011  Align=00001  Fill=0000
    RODATA            Offs=000227  Size=000000  Align=00001  Fill=0000
    BSS               Offs=000000  Size=000000  Align=00001  Fill=0000
    DATA              Offs=000000  Size=000000  Align=00001  Fill=0000
    ZEROPAGE          Offs=00001A  Size=000000  Align=00001  Fill=0000
    NULL              Offs=000000  Size=000000  Align=00001  Fill=0000
../build/clib_rom.tmp.lib(aslax2.o):
    CODE              Offs=000977  Size=00000B  Align=00001  Fill=0000
    RODATA            Offs=000227  Size=000000  Align=00001  Fill=0000
    BSS               Offs=000000  Size=000000  Align=00001  Fill=0000
    DATA              Offs=000000  Size=000000  Align=00001  Fill=0000
    ZEROPAGE          Offs=00001A  Size=000000  Align=00001  Fill=0000
    NULL              Offs=000000  Size=000000  Align=00001  Fill=0000
../build/clib_rom.tmp.lib(strlower.o):
    CODE              Offs=000982  Size=000027  Align=00001  Fill=0000
    RODATA            Offs=000227  Size=000000  Align=00001  Fill=0000
    BSS               Offs=000000  Size=000000  Align=00001  Fill=0000
    DATA              Offs=000000  Size=000000  Align=00001  Fill=0000
    ZEROPAGE          Offs=00001A  Size=000000  Align=00001  Fill=0000
    NULL              Offs=000000  Size=000000  Align=00001  Fill=0000
../build/clib_rom.tmp.lib(add.o):
    CODE              Offs=0009A9  Size=00001C  Align=00001  Fill=0000
    RODATA            Offs=000227  Size=000000  Align=00001  Fill=0000
    BSS               Offs=000000  Size=000000  Align=00001  Fill=0000
    DATA              Offs=000000  Size=000000  Align=00001  Fill=0000
    ZEROPAGE          Offs=00001A  Size=000000  Align=00001  Fill=0000
    NULL              Offs=000000  Size=000000  Align=00001  Fill=0000
../build/clib_rom.tmp.lib(os_generate_error.o):
    CODE              Offs=0009C5  Size=00002A  Align=00001  Fill=0000
    RODATA            Offs=000227  Size=000000  Align=00001  Fill=0000
    BSS               Offs=000000  Size=000000  Align=00001  Fill=0000
    DATA              Offs=000000  Size=000000  Align=00001  Fill=0000
    ZEROPAGE          Offs=00001A  Size=000000  Align=00001  Fill=0000
    NULL              Offs=000000  Size=000000  Align=00001  Fill=0000
../build/clib_rom.tmp.lib(lsub.o):
    CODE              Offs=0009EF  Size=000027  Align=00001  Fill=0000
    RODATA            Offs=000227  Size=000000  Align=00001  Fill=0000
    BSS               Offs=000000  Size=000000  Align=00001  Fill=0000
    DATA              Offs=000000  Size=000000  Align=00001  Fill=0000
    ZEROPAGE          Offs=00001A  Size=000000  Align=00001  Fill=0000
    NULL              Offs=000000  Size=000000  Align=00001  Fill=0000
../build/clib_rom.tmp.lib(idiv32by16r16.o):
    CODE              Offs=000A16  Size=000030  Align=00001  Fill=0000
    RODATA            Offs=000227  Size=000000  Align=00001  Fill=0000
    BSS               Offs=000000  Size=000000  Align=00001  Fill=0000
    DATA              Offs=000000  Size=000000  Align=00001  Fill=0000
    ZEROPAGE          Offs=00001A  Size=000000  Align=00001  Fill=0000
    NULL              Offs=000000  Size=000000  Align=00001  Fill=0000
../build/clib_rom.tmp.lib(osfile_store_len.o):
    CODE              Offs=000A46  Size=000006  Align=00001  Fill=0000
    RODATA            Offs=000227  Size=000000  Align=00001  Fill=0000
    BSS               Offs=000000  Size=000000  Align=00001  Fill=0000
    DATA              Offs=000000  Size=000000  Align=00001  Fill=0000
    ZEROPAGE          Offs=00001A  Size=000000  Align=00001  Fill=0000
    NULL              Offs=000000  Size=000000  Align=00001  Fill=0000
../build/clib_rom.tmp.lib(swap.o):
    CODE              Offs=000A4C  Size=000017  Align=00001  Fill=0000
    RODATA            Offs=000227  Size=000000  Align=00001  Fill=0000
    BSS               Offs=000000  Size=000000  Align=00001  Fill=0000
    DATA              Offs=000000  Size=000000  Align=00001  Fill=0000
    ZEROPAGE          Offs=00001A  Size=000000  Align=00001  Fill=0000
    NULL              Offs=000000  Size=000000  Align=00001  Fill=0000
../build/clib_rom.tmp.lib(popa.o):
    CODE              Offs=000A63  Size=00000C  Align=00001  Fill=0000
    RODATA            Offs=000227  Size=000000  Align=00001  Fill=0000
    BSS               Offs=000000  Size=000000  Align=00001  Fill=0000
    DATA              Offs=000000  Size=000000  Align=00001  Fill=0000
    ZEROPAGE          Offs=00001A  Size=000000  Align=00001  Fill=0000
    NULL              Offs=000000  Size=000000  Align=00001  Fill=0000
../build/clib_rom.tmp.lib(incsp2.o):
    CODE              Offs=000A6F  Size=000016  Align=00001  Fill=0000
    RODATA            Offs=000227  Size=000000  Align=00001  Fill=0000
    BSS               Offs=000000  Size=000000  Align=00001  Fill=0000
    DATA              Offs=000000  Size=000000  Align=00001  Fill=0000
    ZEROPAGE          Offs=00001A  Size=000000  Align=00001  Fill=0000
    NULL              Offs=000000  Size=000000  Align=00001  Fill=0000
../build/clib_rom.tmp.lib(shreax4.o):
    CODE              Offs=000A85  Size=000011  Align=00001  Fill=0000
    RODATA            Offs=000227  Size=000000  Align=00001  Fill=0000
    BSS               Offs=000000  Size=000000  Align=00001  Fill=0000
    DATA              Offs=000000  Size=000000  Align=00001  Fill=0000
    ZEROPAGE          Offs=00001A  Size=000000  Align=00001  Fill=0000
    NULL              Offs=000000  Size=000000  Align=00001  Fill=0000
../build/clib_rom.tmp.lib(ispunct.o):
    CODE              Offs=000A96  Size=00000E  Align=00001  Fill=0000
    RODATA            Offs=000227  Size=000000  Align=00001  Fill=0000
    BSS               Offs=000000  Size=000000  Align=00001  Fill=0000
    DATA              Offs=000000  Size=000000  Align=00001  Fill=0000
    ZEROPAGE          Offs=00001A  Size=000000  Align=00001  Fill=0000
    NULL              Offs=000000  Size=000000  Align=00001  Fill=0000
../build/clib_rom.tmp.lib(strcmp.o):
    CODE              Offs=000AA4  Size=000021  Align=00001  Fill=0000
    RODATA            Offs=000227  Size=000000  Align=00001  Fill=0000
    BSS               Offs=000000  Size=000000  Align=00001  Fill=0000
    DATA              Offs=000000  Size=000000  Align=00001  Fill=0000
    ZEROPAGE          Offs=00001A  Size=000000  Align=00001  Fill=0000
    NULL              Offs=000000  Size=000000  Align=00001  Fill=0000
../build/clib_rom.tmp.lib(negabs.o):
    CODE              Offs=000AC5  Size=000012  Align=00001  Fill=0000
    RODATA            Offs=000227  Size=000000  Align=00001  Fill=0000
    BSS               Offs=000000  Size=000000  Align=00001  Fill=0000
    DATA              Offs=000000  Size=000000  Align=00001  Fill=0000
    ZEROPAGE          Offs=00001A  Size=000000  Align=00001  Fill=0000
    NULL              Offs=000000  Size=000000  Align=00001  Fill=0000
../build/clib_rom.tmp.lib(udiv.o):
    CODE              Offs=000AD7  Size=00004F  Align=00001  Fill=0000
    RODATA            Offs=000227  Size=000000  Align=00001  Fill=0000
    BSS               Offs=000000  Size=000000  Align=00001  Fill=0000
    DATA              Offs=000000  Size=000000  Align=00001  Fill=0000
    ZEROPAGE          Offs=00001A  Size=000000  Align=00001  Fill=0000
    NULL              Offs=000000  Size=000000  Align=00001  Fill=0000
../build/clib_rom.tmp.lib(closedir.o):
    CODE              Offs=000B26  Size=00001D  Align=00001  Fill=0000
    RODATA            Offs=000227  Size=000000  Align=00001  Fill=0000
    BSS               Offs=000000  Size=000000  Align=00001  Fill=0000
    DATA              Offs=000000  Size=000000  Align=00001  Fill=0000
    ZEROPAGE          Offs=00001A  Size=000000  Align=00001  Fill=0000
    NULL              Offs=000000  Size=000000  Align=00001  Fill=0000
../build/clib_rom.tmp.lib(divt.o):
    CODE              Offs=000B43  Size=000015  Align=00001  Fill=0000
    RODATA            Offs=000227  Size=000000  Align=00001  Fill=0000
    BSS               Offs=000000  Size=000000  Align=00001  Fill=0000
    DATA              Offs=000000  Size=000000  Align=00001  Fill=0000
    ZEROPAGE          Offs=00001A  Size=000000  Align=00001  Fill=0000
    NULL              Offs=000000  Size=000000  Align=00001  Fill=0000
../build/clib_rom.tmp.lib(lshelp.o):
    CODE              Offs=000B58  Size=000052  Align=00001  Fill=0000
    RODATA            Offs=000227  Size=000000  Align=00001  Fill=0000
    BSS               Offs=000000  Size=000000  Align=00001  Fill=0000
    DATA              Offs=000000  Size=000000  Align=00001  Fill=0000
    ZEROPAGE          Offs=00001A  Size=000000  Align=00001  Fill=0000
    NULL              Offs=000000  Size=000000  Align=00001  Fill=0000
../build/clib_rom.tmp.lib(asleax1.o):
    CODE              Offs=000BAA  Size=00000C  Align=00001  Fill=0000
    RODATA            Offs=000227  Size=000000  Align=00001  Fill=0000
    BSS               Offs=000000  Size=000000  Align=00001  Fill=0000
    DATA              Offs=000000  Size=000000  Align=00001  Fill=0000
    ZEROPAGE          Offs=00001A  Size=000000  Align=00001  Fill=0000
    NULL              Offs=000000  Size=000000  Align=00001  Fill=0000
../build/clib_rom.tmp.lib(mulax5.o):
    CODE              Offs=000BB6  Size=000014  Align=00001  Fill=0000
    RODATA            Offs=000227  Size=000000  Align=00001  Fill=0000
    BSS               Offs=000000  Size=000000  Align=00001  Fill=0000
    DATA              Offs=000000  Size=000000  Align=00001  Fill=0000
    ZEROPAGE          Offs=00001A  Size=000000  Align=00001  Fill=0000
    NULL              Offs=000000  Size=000000  Align=00001  Fill=0000
../build/clib_rom.tmp.lib(ldai.o):
    CODE              Offs=000BCA  Size=00000C  Align=00001  Fill=0000
    RODATA            Offs=000227  Size=000000  Align=00001  Fill=0000
    BSS               Offs=000000  Size=000000  Align=00001  Fill=0000
    DATA              Offs=000000  Size=000000  Align=00001  Fill=0000
    ZEROPAGE          Offs=00001A  Size=000000  Align=00001  Fill=0000
    NULL              Offs=000000  Size=000000  Align=00001  Fill=0000
../build/clib_rom.tmp.lib(ugt.o):
    CODE              Offs=000BD6  Size=00000A  Align=00001  Fill=0000
    RODATA            Offs=000227  Size=000000  Align=00001  Fill=0000
    BSS               Offs=000000  Size=000000  Align=00001  Fill=0000
    DATA              Offs=000000  Size=000000  Align=00001  Fill=0000
    ZEROPAGE          Offs=00001A  Size=000000  Align=00001  Fill=0000
    NULL              Offs=000000  Size=000000  Align=00001  Fill=0000
../build/clib_rom.tmp.lib(ltoa.o):
    CODE              Offs=000BE0  Size=000095  Align=00001  Fill=0000
    RODATA            Offs=000227  Size=000000  Align=00001  Fill=0000
    BSS               Offs=000000  Size=000000  Align=00001  Fill=0000
    DATA              Offs=000000  Size=000000  Align=00001  Fill=0000
    ZEROPAGE          Offs=00001A  Size=000000  Align=00001  Fill=0000
    NULL              Offs=000000  Size=000000  Align=00001  Fill=0000
../build/clib_rom.tmp.lib(bneg.o):
    CODE              Offs=000C75  Size=00000E  Align=00001  Fill=0000
    RODATA            Offs=000227  Size=000000  Align=00001  Fill=0000
    BSS               Offs=000000  Size=000000  Align=00001  Fill=0000
    DATA              Offs=000000  Size=000000  Align=00001  Fill=0000
    ZEROPAGE          Offs=00001A  Size=000000  Align=00001  Fill=0000
    NULL              Offs=000000  Size=000000  Align=00001  Fill=0000
../build/clib_rom.tmp.lib(ule.o):
    CODE              Offs=000C83  Size=00000A  Align=00001  Fill=0000
    RODATA            Offs=000227  Size=000000  Align=00001  Fill=0000
    BSS               Offs=000000  Size=000000  Align=00001  Fill=0000
    DATA              Offs=000000  Size=000000  Align=00001  Fill=0000
    ZEROPAGE          Offs=00001A  Size=000000  Align=00001  Fill=0000
    NULL              Offs=000000  Size=000000  Align=00001  Fill=0000
../build/clib_rom.tmp.lib(incax7.o):
    CODE              Offs=000C8D  Size=000005  Align=00001  Fill=0000
    RODATA            Offs=000227  Size=000000  Align=00001  Fill=0000
    BSS               Offs=000000  Size=000000  Align=00001  Fill=0000
    DATA              Offs=000000  Size=000000  Align=00001  Fill=0000
    ZEROPAGE          Offs=00001A  Size=000000  Align=00001  Fill=0000
    NULL              Offs=000000  Size=000000  Align=00001  Fill=0000
../build/clib_rom.tmp.lib(incax3.o):
    CODE              Offs=000C92  Size=000005  Align=00001  Fill=0000
    RODATA            Offs=000227  Size=000000  Align=00001  Fill=0000
    BSS               Offs=000000  Size=000000  Align=00001  Fill=0000
    DATA              Offs=000000  Size=000000  Align=00001  Fill=0000
    ZEROPAGE          Offs=00001A  Size=000000  Align=00001  Fill=0000
    NULL              Offs=000000  Size=000000  Align=00001  Fill=0000
../build/clib_rom.tmp.lib(lmod.o):
    CODE              Offs=000C97  Size=000020  Align=00001  Fill=0000
    RODATA            Offs=000227  Size=000000  Align=00001  Fill=0000
    BSS               Offs=000000  Size=000000  Align=00001  Fill=0000
    DATA              Offs=000000  Size=000000  Align=00001  Fill=0000
    ZEROPAGE          Offs=00001A  Size=000000  Align=00001  Fill=0000
    NULL              Offs=000000  Size=000000  Align=00001  Fill=0000
../build/clib_rom.tmp.lib(longjmp.o):
    CODE              Offs=000CB7  Size=000028  Align=00001  Fill=0000
    RODATA            Offs=000227  Size=000000  Align=00001  Fill=0000
    BSS               Offs=000000  Size=000000  Align=00001  Fill=0000
    DATA              Offs=000000  Size=000000  Align=00001  Fill=0000
    ZEROPAGE          Offs=00001A  Size=000000  Align=00001  Fill=0000
    NULL              Offs=000000  Size=000000  Align=00001  Fill=0000
../build/clib_rom.tmp.lib(decsp2.o):
    CODE              Offs=000CDF  Size=00000D  Align=00001  Fill=0000
    RODATA            Offs=000227  Size=000000  Align=00001  Fill=0000
    BSS               Offs=000000  Size=000000  Align=00001  Fill=0000
    DATA              Offs=000000  Size=000000  Align=00001  Fill=0000
    ZEROPAGE          Offs=00001A  Size=000000  Align=00001  Fill=0000
    NULL              Offs=000000  Size=000000  Align=00001  Fill=0000
../build/clib_rom.tmp.lib(decsp3.o):
    CODE              Offs=000CEC  Size=00000D  Align=00001  Fill=0000
    RODATA            Offs=000227  Size=000000  Align=00001  Fill=0000
    BSS               Offs=000000  Size=000000  Align=00001  Fill=0000
    DATA              Offs=000000  Size=000000  Align=00001  Fill=0000
    ZEROPAGE          Offs=00001A  Size=000000  Align=00001  Fill=0000
    NULL              Offs=000000  Size=000000  Align=00001  Fill=0000
../build/clib_rom.tmp.lib(osfile_ret_read_delete_load.o):
    CODE              Offs=000CF9  Size=000046  Align=00001  Fill=0000
    RODATA            Offs=000227  Size=000000  Align=00001  Fill=0000
    BSS               Offs=000000  Size=000000  Align=00001  Fill=0000
    DATA              Offs=000000  Size=000000  Align=00001  Fill=0000
    ZEROPAGE          Offs=00001A  Size=000000  Align=00001  Fill=0000
    NULL              Offs=000000  Size=000000  Align=00001  Fill=0000
../build/clib_rom.tmp.lib(pusha.o):
    CODE              Offs=000D3F  Size=000016  Align=00001  Fill=0000
    RODATA            Offs=000227  Size=000000  Align=00001  Fill=0000
    BSS               Offs=000000  Size=000000  Align=00001  Fill=0000
    DATA              Offs=000000  Size=000000  Align=00001  Fill=0000
    ZEROPAGE          Offs=00001A  Size=000000  Align=00001  Fill=0000
    NULL              Offs=000000  Size=000000  Align=00001  Fill=0000
../build/clib_rom.tmp.lib(rwcommon.o):
    CODE              Offs=000D55  Size=000024  Align=00001  Fill=0000
    RODATA            Offs=000227  Size=000000  Align=00001  Fill=0000
    BSS               Offs=000000  Size=000000  Align=00001  Fill=0000
    DATA              Offs=000000  Size=000000  Align=00001  Fill=0000
    ZEROPAGE          Offs=00001A  Size=000000  Align=00001  Fill=0000
    NULL              Offs=000000  Size=000000  Align=00001  Fill=0000
../build/clib_rom.tmp.lib(shl.o):
    CODE              Offs=000D79  Size=000033  Align=00001  Fill=0000
    RODATA            Offs=000227  Size=000000  Align=00001  Fill=0000
    BSS               Offs=000000  Size=000000  Align=00001  Fill=0000
    DATA              Offs=000000  Size=000000  Align=00001  Fill=0000
    ZEROPAGE          Offs=00001A  Size=000000  Align=00001  Fill=0000
    NULL              Offs=000000  Size=000000  Align=00001  Fill=0000
../build/clib_rom.tmp.lib(pushc1.o):
    CODE              Offs=000DAC  Size=000005  Align=00001  Fill=0000
    RODATA            Offs=000227  Size=000000  Align=00001  Fill=0000
    BSS               Offs=000000  Size=000000  Align=00001  Fill=0000
    DATA              Offs=000000  Size=000000  Align=00001  Fill=0000
    ZEROPAGE          Offs=00001A  Size=000000  Align=00001  Fill=0000
    NULL              Offs=000000  Size=000000  Align=00001  Fill=0000
../build/clib_rom.tmp.lib(lle.o):
    CODE              Offs=000DB1  Size=000006  Align=00001  Fill=0000
    RODATA            Offs=000227  Size=000000  Align=00001  Fill=0000
    BSS               Offs=000000  Size=000000  Align=00001  Fill=0000
    DATA              Offs=000000  Size=000000  Align=00001  Fill=0000
    ZEROPAGE          Offs=00001A  Size=000000  Align=00001  Fill=0000
    NULL              Offs=000000  Size=000000  Align=00001  Fill=0000
../build/clib_rom.tmp.lib(lumod.o):
    CODE              Offs=000DB7  Size=000019  Align=00001  Fill=0000
    RODATA            Offs=000227  Size=000000  Align=00001  Fill=0000
    BSS               Offs=000000  Size=000000  Align=00001  Fill=0000
    DATA              Offs=000000  Size=000000  Align=00001  Fill=0000
    ZEROPAGE          Offs=00001A  Size=000000  Align=00001  Fill=0000
    NULL              Offs=000000  Size=000000  Align=00001  Fill=0000
../build/clib_rom.tmp.lib(toascii.o):
    CODE              Offs=000DD0  Size=000003  Align=00001  Fill=0000
    RODATA            Offs=000227  Size=000000  Align=00001  Fill=0000
    BSS               Offs=000000  Size=000000  Align=00001  Fill=0000
    DATA              Offs=000000  Size=000000  Align=00001  Fill=0000
    ZEROPAGE          Offs=00001A  Size=000000  Align=00001  Fill=0000
    NULL              Offs=000000  Size=000000  Align=00001  Fill=0000
../build/clib_rom.tmp.lib(kbhit.o):
    CODE              Offs=000DD3  Size=000010  Align=00001  Fill=0000
    RODATA            Offs=000227  Size=000000  Align=00001  Fill=0000
    BSS               Offs=000000  Size=000000  Align=00001  Fill=0000
    DATA              Offs=000000  Size=000000  Align=00001  Fill=0000
    ZEROPAGE          Offs=00001A  Size=000000  Align=00001  Fill=0000
    NULL              Offs=000000  Size=000000  Align=00001  Fill=0000
../build/clib_rom.tmp.lib(lgt.o):
    CODE              Offs=000DE3  Size=000006  Align=00001  Fill=0000
    RODATA            Offs=000227  Size=000000  Align=00001  Fill=0000
    BSS               Offs=000000  Size=000000  Align=00001  Fill=0000
    DATA              Offs=000000  Size=000000  Align=00001  Fill=0000
    ZEROPAGE          Offs=00001A  Size=000000  Align=00001  Fill=0000
    NULL              Offs=000000  Size=000000  Align=00001  Fill=0000
../build/clib_rom.tmp.lib(addysp.o):
    CODE              Offs=000DE9  Size=00000E  Align=00001  Fill=0000
    RODATA            Offs=000227  Size=000000  Align=00001  Fill=0000
    BSS               Offs=000000  Size=000000  Align=00001  Fill=0000
    DATA              Offs=000000  Size=000000  Align=00001  Fill=0000
    ZEROPAGE          Offs=00001A  Size=000000  Align=00001  Fill=0000
    NULL              Offs=000000  Size=000000  Align=00001  Fill=0000
../build/clib_rom.tmp.lib(umul16x16r32.o):
    CODE              Offs=000DF7  Size=00002C  Align=00001  Fill=0000
    RODATA            Offs=000227  Size=000000  Align=00001  Fill=0000
    BSS               Offs=000000  Size=000000  Align=00001  Fill=0000
    DATA              Offs=000000  Size=000000  Align=00001  Fill=0000
    ZEROPAGE          Offs=00001A  Size=000000  Align=00001  Fill=0000
    NULL              Offs=000000  Size=000000  Align=00001  Fill=0000
../build/clib_rom.tmp.lib(memset.o):
    CODE              Offs=000E23  Size=00005D  Align=00001  Fill=0000
    RODATA            Offs=000227  Size=000000  Align=00001  Fill=0000
    BSS               Offs=000000  Size=000000  Align=00001  Fill=0000
    DATA              Offs=000000  Size=000000  Align=00001  Fill=0000
    ZEROPAGE          Offs=00001A  Size=000000  Align=00001  Fill=0000
    NULL              Offs=000000  Size=000000  Align=00001  Fill=0000
../build/clib_rom.tmp.lib(isprint.o):
    CODE              Offs=000E80  Size=00000A  Align=00001  Fill=0000
    RODATA            Offs=000227  Size=000000  Align=00001  Fill=0000
    BSS               Offs=000000  Size=000000  Align=00001  Fill=0000
    DATA              Offs=000000  Size=000000  Align=00001  Fill=0000
    ZEROPAGE          Offs=00001A  Size=000000  Align=00001  Fill=0000
    NULL              Offs=000000  Size=000000  Align=00001  Fill=0000
../build/clib_rom.tmp.lib(strupper.o):
    CODE              Offs=000E8A  Size=000027  Align=00001  Fill=0000
    RODATA            Offs=000227  Size=000000  Align=00001  Fill=0000
    BSS               Offs=000000  Size=000000  Align=00001  Fill=0000
    DATA              Offs=000000  Size=000000  Align=00001  Fill=0000
    ZEROPAGE          Offs=00001A  Size=000000  Align=00001  Fill=0000
    NULL              Offs=000000  Size=000000  Align=00001  Fill=0000
../build/clib_rom.tmp.lib(lor.o):
    CODE              Offs=000EB1  Size=000024  Align=00001  Fill=0000
    RODATA            Offs=000227  Size=000000  Align=00001  Fill=0000
    BSS               Offs=000000  Size=000000  Align=00001  Fill=0000
    DATA              Offs=000000  Size=000000  Align=00001  Fill=0000
    ZEROPAGE          Offs=00001A  Size=000000  Align=00001  Fill=0000
    NULL              Offs=000000  Size=000000  Align=00001  Fill=0000
../build/clib_rom.tmp.lib(lge.o):
    CODE              Offs=000ED5  Size=000006  Align=00001  Fill=0000
    RODATA            Offs=000227  Size=000000  Align=00001  Fill=0000
    BSS               Offs=000000  Size=000000  Align=00001  Fill=0000
    DATA              Offs=000000  Size=000000  Align=00001  Fill=0000
    ZEROPAGE          Offs=00001A  Size=000000  Align=00001  Fill=0000
    NULL              Offs=000000  Size=000000  Align=00001  Fill=0000
../build/clib_rom.tmp.lib(toupper.o):
    CODE              Offs=000EDB  Size=000012  Align=00001  Fill=0000
    RODATA            Offs=000227  Size=000000  Align=00001  Fill=0000
    BSS               Offs=000000  Size=000000  Align=00001  Fill=0000
    DATA              Offs=000000  Size=000000  Align=00001  Fill=0000
    ZEROPAGE          Offs=00001A  Size=000000  Align=00001  Fill=0000
    NULL              Offs=000000  Size=000000  Align=00001  Fill=0000
../build/clib_rom.tmp.lib(sincos.o):
    CODE              Offs=000EED  Size=000053  Align=00001  Fill=0000
    RODATA            Offs=000227  Size=000057  Align=00001  Fill=0000
    BSS               Offs=000000  Size=000000  Align=00001  Fill=0000
    DATA              Offs=000000  Size=000000  Align=00001  Fill=0000
    ZEROPAGE          Offs=00001A  Size=000000  Align=00001  Fill=0000
    NULL              Offs=000000  Size=000000  Align=00001  Fill=0000
../build/clib_rom.tmp.lib(mulax6.o):
    CODE              Offs=000F40  Size=000016  Align=00001  Fill=0000
    RODATA            Offs=00027E  Size=000000  Align=00001  Fill=0000
    BSS               Offs=000000  Size=000000  Align=00001  Fill=0000
    DATA              Offs=000000  Size=000000  Align=00001  Fill=0000
    ZEROPAGE          Offs=00001A  Size=000000  Align=00001  Fill=0000
    NULL              Offs=000000  Size=000000  Align=00001  Fill=0000
../build/clib_rom.tmp.lib(decsp5.o):
    CODE              Offs=000F56  Size=00000D  Align=00001  Fill=0000
    RODATA            Offs=00027E  Size=000000  Align=00001  Fill=0000
    BSS               Offs=000000  Size=000000  Align=00001  Fill=0000
    DATA              Offs=000000  Size=000000  Align=00001  Fill=0000
    ZEROPAGE          Offs=00001A  Size=000000  Align=00001  Fill=0000
    NULL              Offs=000000  Size=000000  Align=00001  Fill=0000
../build/clib_rom.tmp.lib(decax5.o):
    CODE              Offs=000F63  Size=000007  Align=00001  Fill=0000
    RODATA            Offs=00027E  Size=000000  Align=00001  Fill=0000
    BSS               Offs=000000  Size=000000  Align=00001  Fill=0000
    DATA              Offs=000000  Size=000000  Align=00001  Fill=0000
    ZEROPAGE          Offs=00001A  Size=000000  Align=00001  Fill=0000
    NULL              Offs=000000  Size=000000  Align=00001  Fill=0000
../build/clib_rom.tmp.lib(labs.o):
    CODE              Offs=000F6A  Size=000008  Align=00001  Fill=0000
    RODATA            Offs=00027E  Size=000000  Align=00001  Fill=0000
    BSS               Offs=000000  Size=000000  Align=00001  Fill=0000
    DATA              Offs=000000  Size=000000  Align=00001  Fill=0000
    ZEROPAGE          Offs=00001A  Size=000000  Align=00001  Fill=0000
    NULL              Offs=000000  Size=000000  Align=00001  Fill=0000
../build/clib_rom.tmp.lib(llt.o):
    CODE              Offs=000F72  Size=000006  Align=00001  Fill=0000
    RODATA            Offs=00027E  Size=000000  Align=00001  Fill=0000
    BSS               Offs=000000  Size=000000  Align=00001  Fill=0000
    DATA              Offs=000000  Size=000000  Align=00001  Fill=0000
    ZEROPAGE          Offs=00001A  Size=000000  Align=00001  Fill=0000
    NULL              Offs=000000  Size=000000  Align=00001  Fill=0000
../build/clib_rom.tmp.lib(strcpy.o):
    CODE              Offs=000F78  Size=00001F  Align=00001  Fill=0000
    RODATA            Offs=00027E  Size=000000  Align=00001  Fill=0000
    BSS               Offs=000000  Size=000000  Align=00001  Fill=0000
    DATA              Offs=000000  Size=000000  Align=00001  Fill=0000
    ZEROPAGE          Offs=00001A  Size=000000  Align=00001  Fill=0000
    NULL              Offs=000000  Size=000000  Align=00001  Fill=0000
../build/clib_rom.tmp.lib(ult.o):
    CODE              Offs=000F97  Size=000008  Align=00001  Fill=0000
    RODATA            Offs=00027E  Size=000000  Align=00001  Fill=0000
    BSS               Offs=000000  Size=000000  Align=00001  Fill=0000
    DATA              Offs=000000  Size=000000  Align=00001  Fill=0000
    ZEROPAGE          Offs=00001A  Size=000000  Align=00001  Fill=0000
    NULL              Offs=000000  Size=000000  Align=00001  Fill=0000
../build/clib_rom.tmp.lib(pushc0.o):
    CODE              Offs=000F9F  Size=000005  Align=00001  Fill=0000
    RODATA            Offs=00027E  Size=000000  Align=00001  Fill=0000
    BSS               Offs=000000  Size=000000  Align=00001  Fill=0000
    DATA              Offs=000000  Size=000000  Align=00001  Fill=0000
    ZEROPAGE          Offs=00001A  Size=000000  Align=00001  Fill=0000
    NULL              Offs=000000  Size=000000  Align=00001  Fill=0000
../build/clib_rom.tmp.lib(lxor.o):
    CODE              Offs=000FA4  Size=000024  Align=00001  Fill=0000
    RODATA            Offs=00027E  Size=000000  Align=00001  Fill=0000
    BSS               Offs=000000  Size=000000  Align=00001  Fill=0000
    DATA              Offs=000000  Size=000000  Align=00001  Fill=0000
    ZEROPAGE          Offs=00001A  Size=000000  Align=00001  Fill=0000
    NULL              Offs=000000  Size=000000  Align=00001  Fill=0000
../build/clib_rom.tmp.lib(doesclrscr.o):
    CODE              Offs=000FC8  Size=000000  Align=00001  Fill=0000
    RODATA            Offs=00027E  Size=000000  Align=00001  Fill=0000
    BSS               Offs=000000  Size=000000  Align=00001  Fill=0000
    DATA              Offs=000000  Size=000000  Align=00001  Fill=0000
    ZEROPAGE          Offs=00001A  Size=000000  Align=00001  Fill=0000
    NULL              Offs=000000  Size=000000  Align=00001  Fill=0000
../build/clib_rom.tmp.lib(mulax3.o):
    CODE              Offs=000FC8  Size=000011  Align=00001  Fill=0000
    RODATA            Offs=00027E  Size=000000  Align=00001  Fill=0000
    BSS               Offs=000000  Size=000000  Align=00001  Fill=0000
    DATA              Offs=000000  Size=000000  Align=00001  Fill=0000
    ZEROPAGE          Offs=00001A  Size=000000  Align=00001  Fill=0000
    NULL              Offs=000000  Size=000000  Align=00001  Fill=0000
../build/clib_rom.tmp.lib(islower.o):
    CODE              Offs=000FD9  Size=000008  Align=00001  Fill=0000
    RODATA            Offs=00027E  Size=000000  Align=00001  Fill=0000
    BSS               Offs=000000  Size=000000  Align=00001  Fill=0000
    DATA              Offs=000000  Size=000000  Align=00001  Fill=0000
    ZEROPAGE          Offs=00001A  Size=000000  Align=00001  Fill=0000
    NULL              Offs=000000  Size=000000  Align=00001  Fill=0000
../build/clib_rom.tmp.lib(uge.o):
    CODE              Offs=000FE1  Size=00000A  Align=00001  Fill=0000
    RODATA            Offs=00027E  Size=000000  Align=00001  Fill=0000
    BSS               Offs=000000  Size=000000  Align=00001  Fill=0000
    DATA              Offs=000000  Size=000000  Align=00001  Fill=0000
    ZEROPAGE          Offs=00001A  Size=000000  Align=00001  Fill=0000
    NULL              Offs=000000  Size=000000  Align=00001  Fill=0000
../build/clib_rom.tmp.lib(lshr.o):
    CODE              Offs=000FEB  Size=00001A  Align=00001  Fill=0000
    RODATA            Offs=00027E  Size=000000  Align=00001  Fill=0000
    BSS               Offs=000000  Size=000000  Align=00001  Fill=0000
    DATA              Offs=000000  Size=000000  Align=00001  Fill=0000
    ZEROPAGE          Offs=00001A  Size=000000  Align=00001  Fill=0000
    NULL              Offs=000000  Size=000000  Align=00001  Fill=0000
../build/clib_rom.tmp.lib(imul8x8r16.o):
    CODE              Offs=001005  Size=000043  Align=00001  Fill=0000
    RODATA            Offs=00027E  Size=000000  Align=00001  Fill=0000
    BSS               Offs=000000  Size=000000  Align=00001  Fill=0000
    DATA              Offs=000000  Size=000000  Align=00001  Fill=0000
    ZEROPAGE          Offs=00001A  Size=000000  Align=00001  Fill=0000
    NULL              Offs=000000  Size=000000  Align=00001  Fill=0000
../build/clib_rom.tmp.lib(pushc2.o):
    CODE              Offs=001048  Size=000005  Align=00001  Fill=0000
    RODATA            Offs=00027E  Size=000000  Align=00001  Fill=0000
    BSS               Offs=000000  Size=000000  Align=00001  Fill=0000
    DATA              Offs=000000  Size=000000  Align=00001  Fill=0000
    ZEROPAGE          Offs=00001A  Size=000000  Align=00001  Fill=0000
    NULL              Offs=000000  Size=000000  Align=00001  Fill=0000
../build/clib_rom.tmp.lib(incax2.o):
    CODE              Offs=00104D  Size=000007  Align=00001  Fill=0000
    RODATA            Offs=00027E  Size=000000  Align=00001  Fill=0000
    BSS               Offs=000000  Size=000000  Align=00001  Fill=0000
    DATA              Offs=000000  Size=000000  Align=00001  Fill=0000
    ZEROPAGE          Offs=00001A  Size=000000  Align=00001  Fill=0000
    NULL              Offs=000000  Size=000000  Align=00001  Fill=0000
../build/clib_rom.tmp.lib(strlen.o):
    CODE              Offs=001054  Size=000016  Align=00001  Fill=0000
    RODATA            Offs=00027E  Size=000000  Align=00001  Fill=0000
    BSS               Offs=000000  Size=000000  Align=00001  Fill=0000
    DATA              Offs=000000  Size=000000  Align=00001  Fill=0000
    ZEROPAGE          Offs=00001A  Size=000000  Align=00001  Fill=0000
    NULL              Offs=000000  Size=000000  Align=00001  Fill=0000
../build/clib_rom.tmp.lib(incsp6.o):
    CODE              Offs=00106A  Size=000005  Align=00001  Fill=0000
    RODATA            Offs=00027E  Size=000000  Align=00001  Fill=0000
    BSS               Offs=000000  Size=000000  Align=00001  Fill=0000
    DATA              Offs=000000  Size=000000  Align=00001  Fill=0000
    ZEROPAGE          Offs=00001A  Size=000000  Align=00001  Fill=0000
    NULL              Offs=000000  Size=000000  Align=00001  Fill=0000
../build/clib_rom.tmp.lib(decax6.o):
    CODE              Offs=00106F  Size=000007  Align=00001  Fill=0000
    RODATA            Offs=00027E  Size=000000  Align=00001  Fill=0000
    BSS               Offs=000000  Size=000000  Align=00001  Fill=0000
    DATA              Offs=000000  Size=000000  Align=00001  Fill=0000
    ZEROPAGE          Offs=00001A  Size=000000  Align=00001  Fill=0000
    NULL              Offs=000000  Size=000000  Align=00001  Fill=0000
../build/clib_rom.tmp.lib(incsp5.o):
    CODE              Offs=001076  Size=000005  Align=00001  Fill=0000
    RODATA            Offs=00027E  Size=000000  Align=00001  Fill=0000
    BSS               Offs=000000  Size=000000  Align=00001  Fill=0000
    DATA              Offs=000000  Size=000000  Align=00001  Fill=0000
    ZEROPAGE          Offs=00001A  Size=000000  Align=00001  Fill=0000
    NULL              Offs=000000  Size=000000  Align=00001  Fill=0000
../build/clib_rom.tmp.lib(osfile_store_attr.o):
    CODE              Offs=00107B  Size=000006  Align=00001  Fill=0000
    RODATA            Offs=00027E  Size=000000  Align=00001  Fill=0000
    BSS               Offs=000000  Size=000000  Align=00001  Fill=0000
    DATA              Offs=000000  Size=000000  Align=00001  Fill=0000
    ZEROPAGE          Offs=00001A  Size=000000  Align=00001  Fill=0000
    NULL              Offs=000000  Size=000000  Align=00001  Fill=0000
../build/clib_rom.tmp.lib(compl.o):
    CODE              Offs=001081  Size=000009  Align=00001  Fill=0000
    RODATA            Offs=00027E  Size=000000  Align=00001  Fill=0000
    BSS               Offs=000000  Size=000000  Align=00001  Fill=0000
    DATA              Offs=000000  Size=000000  Align=00001  Fill=0000
    ZEROPAGE          Offs=00001A  Size=000000  Align=00001  Fill=0000
    NULL              Offs=000000  Size=000000  Align=00001  Fill=0000
../build/clib_rom.tmp.lib(push1.o):
    CODE              Offs=00108A  Size=000005  Align=00001  Fill=0000
    RODATA            Offs=00027E  Size=000000  Align=00001  Fill=0000
    BSS               Offs=000000  Size=000000  Align=00001  Fill=0000
    DATA              Offs=000000  Size=000000  Align=00001  Fill=0000
    ZEROPAGE          Offs=00001A  Size=000000  Align=00001  Fill=0000
    NULL              Offs=000000  Size=000000  Align=00001  Fill=0000
../build/clib_rom.tmp.lib(lneg.o):
    CODE              Offs=00108F  Size=00001E  Align=00001  Fill=0000
    RODATA            Offs=00027E  Size=000000  Align=00001  Fill=0000
    BSS               Offs=000000  Size=000000  Align=00001  Fill=0000
    DATA              Offs=000000  Size=000000  Align=00001  Fill=0000
    ZEROPAGE          Offs=00001A  Size=000000  Align=00001  Fill=0000
    NULL              Offs=000000  Size=000000  Align=00001  Fill=0000
../build/clib_rom.tmp.lib(asrax1.o):
    CODE              Offs=0010AD  Size=00000A  Align=00001  Fill=0000
    RODATA            Offs=00027E  Size=000000  Align=00001  Fill=0000
    BSS               Offs=000000  Size=000000  Align=00001  Fill=0000
    DATA              Offs=000000  Size=000000  Align=00001  Fill=0000
    ZEROPAGE          Offs=00001A  Size=000000  Align=00001  Fill=0000
    NULL              Offs=000000  Size=000000  Align=00001  Fill=0000
../build/clib_rom.tmp.lib(strncat.o):
    CODE              Offs=0010B7  Size=00004A  Align=00001  Fill=0000
    RODATA            Offs=00027E  Size=000000  Align=00001  Fill=0000
    BSS               Offs=000000  Size=000000  Align=00001  Fill=0000
    DATA              Offs=000000  Size=000000  Align=00001  Fill=0000
    ZEROPAGE          Offs=00001A  Size=000000  Align=00001  Fill=0000
    NULL              Offs=000000  Size=000000  Align=00001  Fill=0000
../build/clib_rom.tmp.lib(asrax2.o):
    CODE              Offs=001101  Size=00000F  Align=00001  Fill=0000
    RODATA            Offs=00027E  Size=000000  Align=00001  Fill=0000
    BSS               Offs=000000  Size=000000  Align=00001  Fill=0000
    DATA              Offs=000000  Size=000000  Align=00001  Fill=0000
    ZEROPAGE          Offs=00001A  Size=000000  Align=00001  Fill=0000
    NULL              Offs=000000  Size=000000  Align=00001  Fill=0000
../build/clib_rom.tmp.lib(memchr.o):
    CODE              Offs=001110  Size=000032  Align=00001  Fill=0000
    RODATA            Offs=00027E  Size=000000  Align=00001  Fill=0000
    BSS               Offs=000000  Size=000000  Align=00001  Fill=0000
    DATA              Offs=000000  Size=000000  Align=00001  Fill=0000
    ZEROPAGE          Offs=00001A  Size=000000  Align=00001  Fill=0000
    NULL              Offs=000000  Size=000000  Align=00001  Fill=0000
../build/clib_rom.tmp.lib(ctypemask.o):
    CODE              Offs=001142  Size=00001E  Align=00001  Fill=0000
    RODATA            Offs=00027E  Size=000000  Align=00001  Fill=0000
    BSS               Offs=000000  Size=000000  Align=00001  Fill=0000
    DATA              Offs=000000  Size=000000  Align=00001  Fill=0000
    ZEROPAGE          Offs=00001A  Size=000000  Align=00001  Fill=0000
    NULL              Offs=000000  Size=000000  Align=00001  Fill=0000
../build/clib_rom.tmp.lib(osfile_retdword.o):
    CODE              Offs=001160  Size=000024  Align=00001  Fill=0000
    RODATA            Offs=00027E  Size=000000  Align=00001  Fill=0000
    BSS               Offs=000000  Size=000000  Align=00001  Fill=0000
    DATA              Offs=000000  Size=000000  Align=00001  Fill=0000
    ZEROPAGE          Offs=00001A  Size=000000  Align=00001  Fill=0000
    NULL              Offs=000000  Size=000000  Align=00001  Fill=0000
../build/clib_rom.tmp.lib(isdigit.o):
    CODE              Offs=001184  Size=000008  Align=00001  Fill=0000
    RODATA            Offs=00027E  Size=000000  Align=00001  Fill=0000
    BSS               Offs=000000  Size=000000  Align=00001  Fill=0000
    DATA              Offs=000000  Size=000000  Align=00001  Fill=0000
    ZEROPAGE          Offs=00001A  Size=000000  Align=00001  Fill=0000
    NULL              Offs=000000  Size=000000  Align=00001  Fill=0000
../build/clib_rom.tmp.lib(_imul16x16r32.o):
    CODE              Offs=00118C  Size=00000A  Align=00001  Fill=0000
    RODATA            Offs=00027E  Size=000000  Align=00001  Fill=0000
    BSS               Offs=000000  Size=000000  Align=00001  Fill=0000
    DATA              Offs=000000  Size=000000  Align=00001  Fill=0000
    ZEROPAGE          Offs=00001A  Size=000000  Align=00001  Fill=0000
    NULL              Offs=000000  Size=000000  Align=00001  Fill=0000
../build/clib_rom.tmp.lib(pushbsp.o):
    CODE              Offs=001196  Size=000007  Align=00001  Fill=0000
    RODATA            Offs=00027E  Size=000000  Align=00001  Fill=0000
    BSS               Offs=000000  Size=000000  Align=00001  Fill=0000
    DATA              Offs=000000  Size=000000  Align=00001  Fill=0000
    ZEROPAGE          Offs=00001A  Size=000000  Align=00001  Fill=0000
    NULL              Offs=000000  Size=000000  Align=00001  Fill=0000
../build/clib_rom.tmp.lib(strrchr.o):
    CODE              Offs=00119D  Size=000024  Align=00001  Fill=0000
    RODATA            Offs=00027E  Size=000000  Align=00001  Fill=0000
    BSS               Offs=000000  Size=000000  Align=00001  Fill=0000
    DATA              Offs=000000  Size=000000  Align=00001  Fill=0000
    ZEROPAGE          Offs=00001A  Size=000000  Align=00001  Fill=0000
    NULL              Offs=000000  Size=000000  Align=00001  Fill=0000
../build/clib_rom.tmp.lib(tosint.o):
    CODE              Offs=0011C1  Size=000014  Align=00001  Fill=0000
    RODATA            Offs=00027E  Size=000000  Align=00001  Fill=0000
    BSS               Offs=000000  Size=000000  Align=00001  Fill=0000
    DATA              Offs=000000  Size=000000  Align=00001  Fill=0000
    ZEROPAGE          Offs=00001A  Size=000000  Align=00001  Fill=0000
    NULL              Offs=000000  Size=000000  Align=00001  Fill=0000
../build/clib_rom.tmp.lib(incsp7.o):
    CODE              Offs=0011D5  Size=000005  Align=00001  Fill=0000
    RODATA            Offs=00027E  Size=000000  Align=00001  Fill=0000
    BSS               Offs=000000  Size=000000  Align=00001  Fill=0000
    DATA              Offs=000000  Size=000000  Align=00001  Fill=0000
    ZEROPAGE          Offs=00001A  Size=000000  Align=00001  Fill=0000
    NULL              Offs=000000  Size=000000  Align=00001  Fill=0000
../build/clib_rom.tmp.lib(sysuname.o):
    CODE              Offs=0011DA  Size=000000  Align=00001  Fill=0000
    RODATA            Offs=00027E  Size=000016  Align=00001  Fill=0000
    BSS               Offs=000000  Size=000000  Align=00001  Fill=0000
    DATA              Offs=000000  Size=000000  Align=00001  Fill=0000
    ZEROPAGE          Offs=00001A  Size=000000  Align=00001  Fill=0000
    NULL              Offs=000000  Size=000000  Align=00001  Fill=0000
../build/clib_rom.tmp.lib(lsubeq.o):
    CODE              Offs=0011DA  Size=000031  Align=00001  Fill=0000
    RODATA            Offs=000294  Size=000000  Align=00001  Fill=0000
    BSS               Offs=000000  Size=000000  Align=00001  Fill=0000
    DATA              Offs=000000  Size=000000  Align=00001  Fill=0000
    ZEROPAGE          Offs=00001A  Size=000000  Align=00001  Fill=0000
    NULL              Offs=000000  Size=000000  Align=00001  Fill=0000
../build/clib_rom.tmp.lib(memcmp.o):
    CODE              Offs=00120B  Size=000036  Align=00001  Fill=0000
    RODATA            Offs=000294  Size=000000  Align=00001  Fill=0000
    BSS               Offs=000000  Size=000000  Align=00001  Fill=0000
    DATA              Offs=000000  Size=000000  Align=00001  Fill=0000
    ZEROPAGE          Offs=00001A  Size=000000  Align=00001  Fill=0000
    NULL              Offs=000000  Size=000000  Align=00001  Fill=0000
../build/clib_rom.tmp.lib(return0.o):
    CODE              Offs=001241  Size=000004  Align=00001  Fill=0000
    RODATA            Offs=000294  Size=000000  Align=00001  Fill=0000
    BSS               Offs=000000  Size=000000  Align=00001  Fill=0000
    DATA              Offs=000000  Size=000000  Align=00001  Fill=0000
    ZEROPAGE          Offs=00001A  Size=000000  Align=00001  Fill=0000
    NULL              Offs=000000  Size=000000  Align=00001  Fill=0000
../build/clib_rom.tmp.lib(mul20.o):
    CODE              Offs=001245  Size=00001E  Align=00001  Fill=0000
    RODATA            Offs=000294  Size=000000  Align=00001  Fill=0000
    BSS               Offs=000000  Size=000000  Align=00001  Fill=0000
    DATA              Offs=000000  Size=000000  Align=00001  Fill=0000
    ZEROPAGE          Offs=00001A  Size=000000  Align=00001  Fill=0000
    NULL              Offs=000000  Size=000000  Align=00001  Fill=0000
../build/clib_rom.tmp.lib(isblank.o):
    CODE              Offs=001263  Size=000008  Align=00001  Fill=0000
    RODATA            Offs=000294  Size=000000  Align=00001  Fill=0000
    BSS               Offs=000000  Size=000000  Align=00001  Fill=0000
    DATA              Offs=000000  Size=000000  Align=00001  Fill=0000
    ZEROPAGE          Offs=00001A  Size=000000  Align=00001  Fill=0000
    NULL              Offs=000000  Size=000000  Align=00001  Fill=0000
../build/clib_rom.tmp.lib(leave.o):
    CODE              Offs=00126B  Size=00001D  Align=00001  Fill=0000
    RODATA            Offs=000294  Size=000000  Align=00001  Fill=0000
    BSS               Offs=000000  Size=000000  Align=00001  Fill=0000
    DATA              Offs=000000  Size=000000  Align=00001  Fill=0000
    ZEROPAGE          Offs=00001A  Size=000000  Align=00001  Fill=0000
    NULL              Offs=000000  Size=000000  Align=00001  Fill=0000
../build/clib_rom.tmp.lib(lbcast.o):
    CODE              Offs=001288  Size=00000F  Align=00001  Fill=0000
    RODATA            Offs=000294  Size=000000  Align=00001  Fill=0000
    BSS               Offs=000000  Size=000000  Align=00001  Fill=0000
    DATA              Offs=000000  Size=000000  Align=00001  Fill=0000
    ZEROPAGE          Offs=00001A  Size=000000  Align=00001  Fill=0000
    NULL              Offs=000000  Size=000000  Align=00001  Fill=0000
../build/clib_rom.tmp.lib(incsp4.o):
    CODE              Offs=001297  Size=000005  Align=00001  Fill=0000
    RODATA            Offs=000294  Size=000000  Align=00001  Fill=0000
    BSS               Offs=000000  Size=000000  Align=00001  Fill=0000
    DATA              Offs=000000  Size=000000  Align=00001  Fill=0000
    ZEROPAGE          Offs=00001A  Size=000000  Align=00001  Fill=0000
    NULL              Offs=000000  Size=000000  Align=00001  Fill=0000
../build/clib_rom.tmp.lib(regswap.o):
    CODE              Offs=00129C  Size=000013  Align=00001  Fill=0000
    RODATA            Offs=000294  Size=000000  Align=00001  Fill=0000
    BSS               Offs=000000  Size=000000  Align=00001  Fill=0000
    DATA              Offs=000000  Size=000000  Align=00001  Fill=0000
    ZEROPAGE          Offs=00001A  Size=000000  Align=00001  Fill=0000
    NULL              Offs=000000  Size=000000  Align=00001  Fill=0000
../build/clib_rom.tmp.lib(isalpha.o):
    CODE              Offs=0012AF  Size=000008  Align=00001  Fill=0000
    RODATA            Offs=000294  Size=000000  Align=00001  Fill=0000
    BSS               Offs=000000  Size=000000  Align=00001  Fill=0000
    DATA              Offs=000000  Size=000000  Align=00001  Fill=0000
    ZEROPAGE          Offs=00001A  Size=000000  Align=00001  Fill=0000
    NULL              Offs=000000  Size=000000  Align=00001  Fill=0000
../build/clib_rom.tmp.lib(memmove.o):
    CODE              Offs=0012B7  Size=000050  Align=00001  Fill=0000
    RODATA            Offs=000294  Size=000000  Align=00001  Fill=0000
    BSS               Offs=000000  Size=000000  Align=00001  Fill=0000
    DATA              Offs=000000  Size=000000  Align=00001  Fill=0000
    ZEROPAGE          Offs=00001A  Size=000000  Align=00001  Fill=0000
    NULL              Offs=000000  Size=000000  Align=00001  Fill=0000
../build/clib_rom.tmp.lib(asleax2.o):
    CODE              Offs=001307  Size=000013  Align=00001  Fill=0000
    RODATA            Offs=000294  Size=000000  Align=00001  Fill=0000
    BSS               Offs=000000  Size=000000  Align=00001  Fill=0000
    DATA              Offs=000000  Size=000000  Align=00001  Fill=0000
    ZEROPAGE          Offs=00001A  Size=000000  Align=00001  Fill=0000
    NULL              Offs=000000  Size=000000  Align=00001  Fill=0000
../build/clib_rom.tmp.lib(chline.o):
    CODE              Offs=00131A  Size=000016  Align=00001  Fill=0000
    RODATA            Offs=000294  Size=000000  Align=00001  Fill=0000
    BSS               Offs=000000  Size=000000  Align=00001  Fill=0000
    DATA              Offs=000000  Size=000000  Align=00001  Fill=0000
    ZEROPAGE          Offs=00001A  Size=000000  Align=00001  Fill=0000
    NULL              Offs=000000  Size=000000  Align=00001  Fill=0000
../build/clib_rom.tmp.lib(pushaff.o):
    CODE              Offs=001330  Size=000005  Align=00001  Fill=0000
    RODATA            Offs=000294  Size=000000  Align=00001  Fill=0000
    BSS               Offs=000000  Size=000000  Align=00001  Fill=0000
    DATA              Offs=000000  Size=000000  Align=00001  Fill=0000
    ZEROPAGE          Offs=00001A  Size=000000  Align=00001  Fill=0000
    NULL              Offs=000000  Size=000000  Align=00001  Fill=0000
../build/clib_rom.tmp.lib(ldec.o):
    CODE              Offs=001335  Size=000015  Align=00001  Fill=0000
    RODATA            Offs=000294  Size=000000  Align=00001  Fill=0000
    BSS               Offs=000000  Size=000000  Align=00001  Fill=0000
    DATA              Offs=000000  Size=000000  Align=00001  Fill=0000
    ZEROPAGE          Offs=00001A  Size=000000  Align=00001  Fill=0000
    NULL              Offs=000000  Size=000000  Align=00001  Fill=0000
../build/clib_rom.tmp.lib(asrax4.o):
    CODE              Offs=00134A  Size=000019  Align=00001  Fill=0000
    RODATA            Offs=000294  Size=000000  Align=00001  Fill=0000
    BSS               Offs=000000  Size=000000  Align=00001  Fill=0000
    DATA              Offs=000000  Size=000000  Align=00001  Fill=0000
    ZEROPAGE          Offs=00001A  Size=000000  Align=00001  Fill=0000
    NULL              Offs=000000  Size=000000  Align=00001  Fill=0000
../build/clib_rom.tmp.lib(ltest.o):
    CODE              Offs=001363  Size=00000F  Align=00001  Fill=0000
    RODATA            Offs=000294  Size=000000  Align=00001  Fill=0000
    BSS               Offs=000000  Size=000000  Align=00001  Fill=0000
    DATA              Offs=000000  Size=000000  Align=00001  Fill=0000
    ZEROPAGE          Offs=00001A  Size=000000  Align=00001  Fill=0000
    NULL              Offs=000000  Size=000000  Align=00001  Fill=0000
../build/clib_rom.tmp.lib(lt.o):
    CODE              Offs=001372  Size=00000A  Align=00001  Fill=0000
    RODATA            Offs=000294  Size=000000  Align=00001  Fill=0000
    BSS               Offs=000000  Size=000000  Align=00001  Fill=0000
    DATA              Offs=000000  Size=000000  Align=00001  Fill=0000
    ZEROPAGE          Offs=00001A  Size=000000  Align=00001  Fill=0000
    NULL              Offs=000000  Size=000000  Align=00001  Fill=0000
../build/clib_rom.tmp.lib(and.o):
    CODE              Offs=00137C  Size=000010  Align=00001  Fill=0000
    RODATA            Offs=000294  Size=000000  Align=00001  Fill=0000
    BSS               Offs=000000  Size=000000  Align=00001  Fill=0000
    DATA              Offs=000000  Size=000000  Align=00001  Fill=0000
    ZEROPAGE          Offs=00001A  Size=000000  Align=00001  Fill=0000
    NULL              Offs=000000  Size=000000  Align=00001  Fill=0000
../build/clib_rom.tmp.lib(os.o):
    CODE              Offs=00138C  Size=000000  Align=00001  Fill=0000
    RODATA            Offs=000294  Size=000000  Align=00001  Fill=0000
    BSS               Offs=000000  Size=000000  Align=00001  Fill=0000
    DATA              Offs=000000  Size=000000  Align=00001  Fill=0000
    ZEROPAGE          Offs=00001A  Size=000000  Align=00001  Fill=0000
    NULL              Offs=000000  Size=000000  Align=00001  Fill=0000
../build/clib_rom.tmp.lib(lult.o):
    CODE              Offs=00138C  Size=000006  Align=00001  Fill=0000
    RODATA            Offs=000294  Size=000000  Align=00001  Fill=0000
    BSS               Offs=000000  Size=000000  Align=00001  Fill=0000
    DATA              Offs=000000  Size=000000  Align=00001  Fill=0000
    ZEROPAGE          Offs=00001A  Size=000000  Align=00001  Fill=0000
    NULL              Offs=000000  Size=000000  Align=00001  Fill=0000
../build/clib_rom.tmp.lib(atoi.o):
    CODE              Offs=001392  Size=000091  Align=00001  Fill=0000
    RODATA            Offs=000294  Size=000000  Align=00001  Fill=0000
    BSS               Offs=000000  Size=000000  Align=00001  Fill=0000
    DATA              Offs=000000  Size=000000  Align=00001  Fill=0000
    ZEROPAGE          Offs=00001A  Size=000000  Align=00001  Fill=0000
    NULL              Offs=000000  Size=000000  Align=00001  Fill=0000
../build/clib_rom.tmp.lib(eq.o):
    CODE              Offs=001423  Size=00000A  Align=00001  Fill=0000
    RODATA            Offs=000294  Size=000000  Align=00001  Fill=0000
    BSS               Offs=000000  Size=000000  Align=00001  Fill=0000
    DATA              Offs=000000  Size=000000  Align=00001  Fill=0000
    ZEROPAGE          Offs=00001A  Size=000000  Align=00001  Fill=0000
    NULL              Offs=000000  Size=000000  Align=00001  Fill=0000
../build/clib_rom.tmp.lib(ldiv.o):
    CODE              Offs=00142D  Size=00001C  Align=00001  Fill=0000
    RODATA            Offs=000294  Size=000000  Align=00001  Fill=0000
    BSS               Offs=000000  Size=000000  Align=00001  Fill=0000
    DATA              Offs=000000  Size=000000  Align=00001  Fill=0000
    ZEROPAGE          Offs=00001A  Size=000000  Align=00001  Fill=0000
    NULL              Offs=000000  Size=000000  Align=00001  Fill=0000
../build/clib_rom.tmp.lib(lz4.o):
    CODE              Offs=001449  Size=00012B  Align=00001  Fill=0000
    RODATA            Offs=000294  Size=000000  Align=00001  Fill=0000
    BSS               Offs=000000  Size=000000  Align=00001  Fill=0000
    DATA              Offs=000000  Size=000000  Align=00001  Fill=0000
    ZEROPAGE          Offs=00001A  Size=000000  Align=00001  Fill=0000
    NULL              Offs=000000  Size=000000  Align=00001  Fill=0000
../build/clib_rom.tmp.lib(strspn.o):
    CODE              Offs=001574  Size=00002D  Align=00001  Fill=0000
    RODATA            Offs=000294  Size=000000  Align=00001  Fill=0000
    BSS               Offs=000000  Size=000000  Align=00001  Fill=0000
    DATA              Offs=000000  Size=000000  Align=00001  Fill=0000
    ZEROPAGE          Offs=00001A  Size=000000  Align=00001  Fill=0000
    NULL              Offs=000000  Size=000000  Align=00001  Fill=0000
../build/clib_rom.tmp.lib(decsp8.o):
    CODE              Offs=0015A1  Size=00000D  Align=00001  Fill=0000
    RODATA            Offs=000294  Size=000000  Align=00001  Fill=0000
    BSS               Offs=000000  Size=000000  Align=00001  Fill=0000
    DATA              Offs=000000  Size=000000  Align=00001  Fill=0000
    ZEROPAGE          Offs=00001A  Size=000000  Align=00001  Fill=0000
    NULL              Offs=000000  Size=000000  Align=00001  Fill=0000
../build/clib_rom.tmp.lib(lule.o):
    CODE              Offs=0015AE  Size=000006  Align=00001  Fill=0000
    RODATA            Offs=000294  Size=000000  Align=00001  Fill=0000
    BSS               Offs=000000  Size=000000  Align=00001  Fill=0000
    DATA              Offs=000000  Size=000000  Align=00001  Fill=0000
    ZEROPAGE          Offs=00001A  Size=000000  Align=00001  Fill=0000
    NULL              Offs=000000  Size=000000  Align=00001  Fill=0000
../build/clib_rom.tmp.lib(umul8x16r24.o):
    CODE              Offs=0015B4  Size=00002D  Align=00001  Fill=0000
    RODATA            Offs=000294  Size=000000  Align=00001  Fill=0000
    BSS               Offs=000000  Size=000000  Align=00001  Fill=0000
    DATA              Offs=000000  Size=000000  Align=00001  Fill=0000
    ZEROPAGE          Offs=00001A  Size=000000  Align=00001  Fill=0000
    NULL              Offs=000000  Size=000000  Align=00001  Fill=0000
../build/clib_rom.tmp.lib(land.o):
    CODE              Offs=0015E1  Size=000024  Align=00001  Fill=0000
    RODATA            Offs=000294  Size=000000  Align=00001  Fill=0000
    BSS               Offs=000000  Size=000000  Align=00001  Fill=0000
    DATA              Offs=000000  Size=000000  Align=00001  Fill=0000
    ZEROPAGE          Offs=00001A  Size=000000  Align=00001  Fill=0000
    NULL              Offs=000000  Size=000000  Align=00001  Fill=0000
../build/clib_rom.tmp.lib(isxdigit.o):
    CODE              Offs=001605  Size=000008  Align=00001  Fill=0000
    RODATA            Offs=000294  Size=000000  Align=00001  Fill=0000
    BSS               Offs=000000  Size=000000  Align=00001  Fill=0000
    DATA              Offs=000000  Size=000000  Align=00001  Fill=0000
    ZEROPAGE          Offs=00001A  Size=000000  Align=00001  Fill=0000
    NULL              Offs=000000  Size=000000  Align=00001  Fill=0000
../build/clib_rom.tmp.lib(call.o):
    CODE              Offs=00160D  Size=000007  Align=00001  Fill=0000
    RODATA            Offs=000294  Size=000000  Align=00001  Fill=0000
    BSS               Offs=000000  Size=000000  Align=00001  Fill=0000
    DATA              Offs=000000  Size=000000  Align=00001  Fill=0000
    ZEROPAGE          Offs=00001A  Size=000000  Align=00001  Fill=0000
    NULL              Offs=000000  Size=000000  Align=00001  Fill=0000
../build/clib_rom.tmp.lib(strpbrk.o):
    CODE              Offs=001614  Size=000032  Align=00001  Fill=0000
    RODATA            Offs=000294  Size=000000  Align=00001  Fill=0000
    BSS               Offs=000000  Size=000000  Align=00001  Fill=0000
    DATA              Offs=000000  Size=000000  Align=00001  Fill=0000
    ZEROPAGE          Offs=00001A  Size=000000  Align=00001  Fill=0000
    NULL              Offs=000000  Size=000000  Align=00001  Fill=0000
../build/clib_rom.tmp.lib(lmul.o):
    CODE              Offs=001646  Size=00005C  Align=00001  Fill=0000
    RODATA            Offs=000294  Size=000000  Align=00001  Fill=0000
    BSS               Offs=000000  Size=000000  Align=00001  Fill=0000
    DATA              Offs=000000  Size=000000  Align=00001  Fill=0000
    ZEROPAGE          Offs=00001A  Size=000000  Align=00001  Fill=0000
    NULL              Offs=000000  Size=000000  Align=00001  Fill=0000
../build/clib_rom.tmp.lib(div.o):
    CODE              Offs=0016A2  Size=000015  Align=00001  Fill=0000
    RODATA            Offs=000294  Size=000000  Align=00001  Fill=0000
    BSS               Offs=000000  Size=000000  Align=00001  Fill=0000
    DATA              Offs=000000  Size=000000  Align=00001  Fill=0000
    ZEROPAGE          Offs=00001A  Size=000000  Align=00001  Fill=0000
    NULL              Offs=000000  Size=000000  Align=00001  Fill=0000
../build/clib_rom.tmp.lib(gt.o):
    CODE              Offs=0016B7  Size=00000A  Align=00001  Fill=0000
    RODATA            Offs=000294  Size=000000  Align=00001  Fill=0000
    BSS               Offs=000000  Size=000000  Align=00001  Fill=0000
    DATA              Offs=000000  Size=000000  Align=00001  Fill=0000
    ZEROPAGE          Offs=00001A  Size=000000  Align=00001  Fill=0000
    NULL              Offs=000000  Size=000000  Align=00001  Fill=0000
../build/clib_rom.tmp.lib(ldauisp.o):
    CODE              Offs=0016C1  Size=000012  Align=00001  Fill=0000
    RODATA            Offs=000294  Size=000000  Align=00001  Fill=0000
    BSS               Offs=000000  Size=000000  Align=00001  Fill=0000
    DATA              Offs=000000  Size=000000  Align=00001  Fill=0000
    ZEROPAGE          Offs=00001A  Size=000000  Align=00001  Fill=0000
    NULL              Offs=000000  Size=000000  Align=00001  Fill=0000
../build/clib_rom.tmp.lib(setjmp.o):
    CODE              Offs=0016D3  Size=000025  Align=00001  Fill=0000
    RODATA            Offs=000294  Size=000000  Align=00001  Fill=0000
    BSS               Offs=000000  Size=000000  Align=00001  Fill=0000
    DATA              Offs=000000  Size=000000  Align=00001  Fill=0000
    ZEROPAGE          Offs=00001A  Size=000000  Align=00001  Fill=0000
    NULL              Offs=000000  Size=000000  Align=00001  Fill=0000
../build/clib_rom.tmp.lib(incsp1.o):
    CODE              Offs=0016F8  Size=000007  Align=00001  Fill=0000
    RODATA            Offs=000294  Size=000000  Align=00001  Fill=0000
    BSS               Offs=000000  Size=000000  Align=00001  Fill=0000
    DATA              Offs=000000  Size=000000  Align=00001  Fill=0000
    ZEROPAGE          Offs=00001A  Size=000000  Align=00001  Fill=0000
    NULL              Offs=000000  Size=000000  Align=00001  Fill=0000
../build/clib_rom.tmp.lib(lpop.o):
    CODE              Offs=0016FF  Size=000015  Align=00001  Fill=0000
    RODATA            Offs=000294  Size=000000  Align=00001  Fill=0000
    BSS               Offs=000000  Size=000000  Align=00001  Fill=0000
    DATA              Offs=000000  Size=000000  Align=00001  Fill=0000
    ZEROPAGE          Offs=00001A  Size=000000  Align=00001  Fill=0000
    NULL              Offs=000000  Size=000000  Align=00001  Fill=0000
../build/clib_rom.tmp.lib(decax1.o):
    CODE              Offs=001714  Size=000007  Align=00001  Fill=0000
    RODATA            Offs=000294  Size=000000  Align=00001  Fill=0000
    BSS               Offs=000000  Size=000000  Align=00001  Fill=0000
    DATA              Offs=000000  Size=000000  Align=00001  Fill=0000
    ZEROPAGE          Offs=00001A  Size=000000  Align=00001  Fill=0000
    NULL              Offs=000000  Size=000000  Align=00001  Fill=0000
../build/clib_rom.tmp.lib(isupper.o):
    CODE              Offs=00171B  Size=000008  Align=00001  Fill=0000
    RODATA            Offs=000294  Size=000000  Align=00001  Fill=0000
    BSS               Offs=000000  Size=000000  Align=00001  Fill=0000
    DATA              Offs=000000  Size=000000  Align=00001  Fill=0000
    ZEROPAGE          Offs=00001A  Size=000000  Align=00001  Fill=0000
    NULL              Offs=000000  Size=000000  Align=00001  Fill=0000
../build/clib_rom.tmp.lib(lcompl.o):
    CODE              Offs=001723  Size=000015  Align=00001  Fill=0000
    RODATA            Offs=000294  Size=000000  Align=00001  Fill=0000
    BSS               Offs=000000  Size=000000  Align=00001  Fill=0000
    DATA              Offs=000000  Size=000000  Align=00001  Fill=0000
    ZEROPAGE          Offs=00001A  Size=000000  Align=00001  Fill=0000
    NULL              Offs=000000  Size=000000  Align=00001  Fill=0000
../build/clib_rom.tmp.lib(lugt.o):
    CODE              Offs=001738  Size=000006  Align=00001  Fill=0000
    RODATA            Offs=000294  Size=000000  Align=00001  Fill=0000
    BSS               Offs=000000  Size=000000  Align=00001  Fill=0000
    DATA              Offs=000000  Size=000000  Align=00001  Fill=0000
    ZEROPAGE          Offs=00001A  Size=000000  Align=00001  Fill=0000
    NULL              Offs=000000  Size=000000  Align=00001  Fill=0000
../build/clib_rom.tmp.lib(isascii.o):
    CODE              Offs=00173E  Size=00000B  Align=00001  Fill=0000
    RODATA            Offs=000294  Size=000000  Align=00001  Fill=0000
    BSS               Offs=000000  Size=000000  Align=00001  Fill=0000
    DATA              Offs=000000  Size=000000  Align=00001  Fill=0000
    ZEROPAGE          Offs=00001A  Size=000000  Align=00001  Fill=0000
    NULL              Offs=000000  Size=000000  Align=00001  Fill=0000
../build/clib_rom.tmp.lib(wherey.o):
    CODE              Offs=001749  Size=000006  Align=00001  Fill=0000
    RODATA            Offs=000294  Size=000000  Align=00001  Fill=0000
    BSS               Offs=000000  Size=000000  Align=00001  Fill=0000
    DATA              Offs=000000  Size=000000  Align=00001  Fill=0000
    ZEROPAGE          Offs=00001A  Size=000000  Align=00001  Fill=0000
    NULL              Offs=000000  Size=000000  Align=00001  Fill=0000
../build/clib_rom.tmp.lib(staxsp.o):
    CODE              Offs=00174F  Size=00000B  Align=00001  Fill=0000
    RODATA            Offs=000294  Size=000000  Align=00001  Fill=0000
    BSS               Offs=000000  Size=000000  Align=00001  Fill=0000
    DATA              Offs=000000  Size=000000  Align=00001  Fill=0000
    ZEROPAGE          Offs=00001A  Size=000000  Align=00001  Fill=0000
    NULL              Offs=000000  Size=000000  Align=00001  Fill=0000
../build/clib_rom.tmp.lib(ldeaxysp.o):
    CODE              Offs=00175A  Size=000013  Align=00001  Fill=0000
    RODATA            Offs=000294  Size=000000  Align=00001  Fill=0000
    BSS               Offs=000000  Size=000000  Align=00001  Fill=0000
    DATA              Offs=000000  Size=000000  Align=00001  Fill=0000
    ZEROPAGE          Offs=00001A  Size=000000  Align=00001  Fill=0000
    NULL              Offs=000000  Size=000000  Align=00001  Fill=0000
../build/clib_rom.tmp.lib(strcoll.o):
    CODE              Offs=00176D  Size=000000  Align=00001  Fill=0000
    RODATA            Offs=000294  Size=000000  Align=00001  Fill=0000
    BSS               Offs=000000  Size=000000  Align=00001  Fill=0000
    DATA              Offs=000000  Size=000000  Align=00001  Fill=0000
    ZEROPAGE          Offs=00001A  Size=000000  Align=00001  Fill=0000
    NULL              Offs=000000  Size=000000  Align=00001  Fill=0000
../build/clib_rom.tmp.lib(push4.o):
    CODE              Offs=00176D  Size=000005  Align=00001  Fill=0000
    RODATA            Offs=000294  Size=000000  Align=00001  Fill=0000
    BSS               Offs=000000  Size=000000  Align=00001  Fill=0000
    DATA              Offs=000000  Size=000000  Align=00001  Fill=0000
    ZEROPAGE          Offs=00001A  Size=000000  Align=00001  Fill=0000
    NULL              Offs=000000  Size=000000  Align=00001  Fill=0000
../build/clib_rom.tmp.lib(strxfrm.o):
    CODE              Offs=001772  Size=000020  Align=00001  Fill=0000
    RODATA            Offs=000294  Size=000000  Align=00001  Fill=0000
    BSS               Offs=000000  Size=000000  Align=00001  Fill=0000
    DATA              Offs=000000  Size=000000  Align=00001  Fill=0000
    ZEROPAGE          Offs=00001A  Size=000000  Align=00001  Fill=0000
    NULL              Offs=000000  Size=000000  Align=00001  Fill=0000
../build/clib_rom.tmp.lib(lshl.o):
    CODE              Offs=001792  Size=00001A  Align=00001  Fill=0000
    RODATA            Offs=000294  Size=000000  Align=00001  Fill=0000
    BSS               Offs=000000  Size=000000  Align=00001  Fill=0000
    DATA              Offs=000000  Size=000000  Align=00001  Fill=0000
    ZEROPAGE          Offs=00001A  Size=000000  Align=00001  Fill=0000
    NULL              Offs=000000  Size=000000  Align=00001  Fill=0000
../build/clib_rom.tmp.lib(osfile_callosfile.o):
    CODE              Offs=0017AC  Size=000008  Align=00001  Fill=0000
    RODATA            Offs=000294  Size=000000  Align=00001  Fill=0000
    BSS               Offs=000000  Size=000000  Align=00001  Fill=0000
    DATA              Offs=000000  Size=000000  Align=00001  Fill=0000
    ZEROPAGE          Offs=00001A  Size=000000  Align=00001  Fill=0000
    NULL              Offs=000000  Size=000000  Align=00001  Fill=0000
../build/clib_rom.tmp.lib(mulax10.o):
    CODE              Offs=0017B4  Size=000019  Align=00001  Fill=0000
    RODATA            Offs=000294  Size=000000  Align=00001  Fill=0000
    BSS               Offs=000000  Size=000000  Align=00001  Fill=0000
    DATA              Offs=000000  Size=000000  Align=00001  Fill=0000
    ZEROPAGE          Offs=00001A  Size=000000  Align=00001  Fill=0000
    NULL              Offs=000000  Size=000000  Align=00001  Fill=0000
../build/clib_rom.tmp.lib(ladd.o):
    CODE              Offs=0017CD  Size=000025  Align=00001  Fill=0000
    RODATA            Offs=000294  Size=000000  Align=00001  Fill=0000
    BSS               Offs=000000  Size=000000  Align=00001  Fill=0000
    DATA              Offs=000000  Size=000000  Align=00001  Fill=0000
    ZEROPAGE          Offs=00001A  Size=000000  Align=00001  Fill=0000
    NULL              Offs=000000  Size=000000  Align=00001  Fill=0000
../build/clib_rom.tmp.lib(ldeaxi.o):
    CODE              Offs=0017F2  Size=000017  Align=00001  Fill=0000
    RODATA            Offs=000294  Size=000000  Align=00001  Fill=0000
    BSS               Offs=000000  Size=000000  Align=00001  Fill=0000
    DATA              Offs=000000  Size=000000  Align=00001  Fill=0000
    ZEROPAGE          Offs=00001A  Size=000000  Align=00001  Fill=0000
    NULL              Offs=000000  Size=000000  Align=00001  Fill=0000
../build/clib_rom.tmp.lib(shreax1.o):
    CODE              Offs=001809  Size=00000C  Align=00001  Fill=0000
    RODATA            Offs=000294  Size=000000  Align=00001  Fill=0000
    BSS               Offs=000000  Size=000000  Align=00001  Fill=0000
    DATA              Offs=000000  Size=000000  Align=00001  Fill=0000
    ZEROPAGE          Offs=00001A  Size=000000  Align=00001  Fill=0000
    NULL              Offs=000000  Size=000000  Align=00001  Fill=0000
../build/clib_rom.tmp.lib(asleax3.o):
    CODE              Offs=001815  Size=00001A  Align=00001  Fill=0000
    RODATA            Offs=000294  Size=000000  Align=00001  Fill=0000
    BSS               Offs=000000  Size=000000  Align=00001  Fill=0000
    DATA              Offs=000000  Size=000000  Align=00001  Fill=0000
    ZEROPAGE          Offs=00001A  Size=000000  Align=00001  Fill=0000
    NULL              Offs=000000  Size=000000  Align=00001  Fill=0000
../build/clib_rom.tmp.lib(mul.o):
    CODE              Offs=00182F  Size=000045  Align=00001  Fill=0000
    RODATA            Offs=000294  Size=000000  Align=00001  Fill=0000
    BSS               Offs=000000  Size=000000  Align=00001  Fill=0000
    DATA              Offs=000000  Size=000000  Align=00001  Fill=0000
    ZEROPAGE          Offs=00001A  Size=000000  Align=00001  Fill=0000
    NULL              Offs=000000  Size=000000  Align=00001  Fill=0000
../build/clib_rom.tmp.lib(_swap.o):
    CODE              Offs=001874  Size=00002F  Align=00001  Fill=0000
    RODATA            Offs=000294  Size=000000  Align=00001  Fill=0000
    BSS               Offs=000000  Size=000000  Align=00001  Fill=0000
    DATA              Offs=000000  Size=000000  Align=00001  Fill=0000
    ZEROPAGE          Offs=00001A  Size=000000  Align=00001  Fill=0000
    NULL              Offs=000000  Size=000000  Align=00001  Fill=0000
../build/clib_rom.tmp.lib(_heapblocksize.o):
    CODE              Offs=0018A3  Size=00002C  Align=00001  Fill=0000
    RODATA            Offs=000294  Size=000000  Align=00001  Fill=0000
    BSS               Offs=000000  Size=000000  Align=00001  Fill=0000
    DATA              Offs=000000  Size=000000  Align=00001  Fill=0000
    ZEROPAGE          Offs=00001A  Size=000000  Align=00001  Fill=0000
    NULL              Offs=000000  Size=000000  Align=00001  Fill=0000
../build/clib_rom.tmp.lib(getcpu.o):
    CODE              Offs=0018CF  Size=000075  Align=00001  Fill=0000
    RODATA            Offs=000294  Size=000000  Align=00001  Fill=0000
    BSS               Offs=000000  Size=000000  Align=00001  Fill=0000
    DATA              Offs=000000  Size=000000  Align=00001  Fill=0000
    ZEROPAGE          Offs=00001A  Size=000000  Align=00001  Fill=0000
    NULL              Offs=000000  Size=000000  Align=00001  Fill=0000
../build/clib_rom.tmp.lib(rsub.o):
    CODE              Offs=001944  Size=000013  Align=00001  Fill=0000
    RODATA            Offs=000294  Size=000000  Align=00001  Fill=0000
    BSS               Offs=000000  Size=000000  Align=00001  Fill=0000
    DATA              Offs=000000  Size=000000  Align=00001  Fill=0000
    ZEROPAGE          Offs=00001A  Size=000000  Align=00001  Fill=0000
    NULL              Offs=000000  Size=000000  Align=00001  Fill=0000
../build/clib_rom.tmp.lib(subeqsp.o):
    CODE              Offs=001957  Size=000015  Align=00001  Fill=0000
    RODATA            Offs=000294  Size=000000  Align=00001  Fill=0000
    BSS               Offs=000000  Size=000000  Align=00001  Fill=0000
    DATA              Offs=000000  Size=000000  Align=00001  Fill=0000
    ZEROPAGE          Offs=00001A  Size=000000  Align=00001  Fill=0000
    NULL              Offs=000000  Size=000000  Align=00001  Fill=0000
../build/clib_rom.tmp.lib(sub.o):
    CODE              Offs=00196C  Size=000015  Align=00001  Fill=0000
    RODATA            Offs=000294  Size=000000  Align=00001  Fill=0000
    BSS               Offs=000000  Size=000000  Align=00001  Fill=0000
    DATA              Offs=000000  Size=000000  Align=00001  Fill=0000
    ZEROPAGE          Offs=00001A  Size=000000  Align=00001  Fill=0000
    NULL              Offs=000000  Size=000000  Align=00001  Fill=0000
../build/clib_rom.tmp.lib(asreax3.o):
    CODE              Offs=001981  Size=000022  Align=00001  Fill=0000
    RODATA            Offs=000294  Size=000000  Align=00001  Fill=0000
    BSS               Offs=000000  Size=000000  Align=00001  Fill=0000
    DATA              Offs=000000  Size=000000  Align=00001  Fill=0000
    ZEROPAGE          Offs=00001A  Size=000000  Align=00001  Fill=0000
    NULL              Offs=000000  Size=000000  Align=00001  Fill=0000
../build/clib_rom.tmp.lib(cputc.o):
    CODE              Offs=0019A3  Size=000015  Align=00001  Fill=0000
    RODATA            Offs=000294  Size=000000  Align=00001  Fill=0000
    BSS               Offs=000000  Size=000000  Align=00001  Fill=0000
    DATA              Offs=000000  Size=000000  Align=00001  Fill=0000
    ZEROPAGE          Offs=00001A  Size=000000  Align=00001  Fill=0000
    NULL              Offs=000000  Size=000000  Align=00001  Fill=0000
../build/clib_rom.tmp.lib(ludiv.o):
    CODE              Offs=0019B8  Size=00007A  Align=00001  Fill=0000
    RODATA            Offs=000294  Size=000000  Align=00001  Fill=0000
    BSS               Offs=000000  Size=000000  Align=00001  Fill=0000
    DATA              Offs=000000  Size=000000  Align=00001  Fill=0000
    ZEROPAGE          Offs=00001A  Size=000000  Align=00001  Fill=0000
    NULL              Offs=000000  Size=000000  Align=00001  Fill=0000
../build/clib_rom.tmp.lib(wherex.o):
    CODE              Offs=001A32  Size=000006  Align=00001  Fill=0000
    RODATA            Offs=000294  Size=000000  Align=00001  Fill=0000
    BSS               Offs=000000  Size=000000  Align=00001  Fill=0000
    DATA              Offs=000000  Size=000000  Align=00001  Fill=0000
    ZEROPAGE          Offs=00001A  Size=000000  Align=00001  Fill=0000
    NULL              Offs=000000  Size=000000  Align=00001  Fill=0000
../build/clib_rom.tmp.lib(aslax1.o):
    CODE              Offs=001A38  Size=000008  Align=00001  Fill=0000
    RODATA            Offs=000294  Size=000000  Align=00001  Fill=0000
    BSS               Offs=000000  Size=000000  Align=00001  Fill=0000
    DATA              Offs=000000  Size=000000  Align=00001  Fill=0000
    ZEROPAGE          Offs=00001A  Size=000000  Align=00001  Fill=0000
    NULL              Offs=000000  Size=000000  Align=00001  Fill=0000
../build/clib_rom.tmp.lib(_umul16x16r32.o):
    CODE              Offs=001A40  Size=00000A  Align=00001  Fill=0000
    RODATA            Offs=000294  Size=000000  Align=00001  Fill=0000
    BSS               Offs=000000  Size=000000  Align=00001  Fill=0000
    DATA              Offs=000000  Size=000000  Align=00001  Fill=0000
    ZEROPAGE          Offs=00001A  Size=000000  Align=00001  Fill=0000
    NULL              Offs=000000  Size=000000  Align=00001  Fill=0000
../build/clib_rom.tmp.lib(strnicmp.o):
    CODE              Offs=001A4A  Size=00005B  Align=00001  Fill=0000
    RODATA            Offs=000294  Size=000000  Align=00001  Fill=0000
    BSS               Offs=000000  Size=000000  Align=00001  Fill=0000
    DATA              Offs=000000  Size=000000  Align=00001  Fill=0000
    ZEROPAGE          Offs=00001A  Size=000000  Align=00001  Fill=0000
    NULL              Offs=000000  Size=000000  Align=00001  Fill=0000
../build/clib_rom.tmp.lib(shrax2.o):
    CODE              Offs=001AA5  Size=00000B  Align=00001  Fill=0000
    RODATA            Offs=000294  Size=000000  Align=00001  Fill=0000
    BSS               Offs=000000  Size=000000  Align=00001  Fill=0000
    DATA              Offs=000000  Size=000000  Align=00001  Fill=0000
    ZEROPAGE          Offs=00001A  Size=000000  Align=00001  Fill=0000
    NULL              Offs=000000  Size=000000  Align=00001  Fill=0000
../build/clib_rom.tmp.lib(pushw.o):
    CODE              Offs=001AB0  Size=00000F  Align=00001  Fill=0000
    RODATA            Offs=000294  Size=000000  Align=00001  Fill=0000
    BSS               Offs=000000  Size=000000  Align=00001  Fill=0000
    DATA              Offs=000000  Size=000000  Align=00001  Fill=0000
    ZEROPAGE          Offs=00001A  Size=000000  Align=00001  Fill=0000
    NULL              Offs=000000  Size=000000  Align=00001  Fill=0000
../build/clib_rom.tmp.lib(lasr.o):
    CODE              Offs=001ABF  Size=00001E  Align=00001  Fill=0000
    RODATA            Offs=000294  Size=000000  Align=00001  Fill=0000
    BSS               Offs=000000  Size=000000  Align=00001  Fill=0000
    DATA              Offs=000000  Size=000000  Align=00001  Fill=0000
    ZEROPAGE          Offs=00001A  Size=000000  Align=00001  Fill=0000
    NULL              Offs=000000  Size=000000  Align=00001  Fill=0000
../build/clib_rom.tmp.lib(lpush.o):
    CODE              Offs=001ADD  Size=000021  Align=00001  Fill=0000
    RODATA            Offs=000294  Size=000000  Align=00001  Fill=0000
    BSS               Offs=000000  Size=000000  Align=00001  Fill=0000
    DATA              Offs=000000  Size=000000  Align=00001  Fill=0000
    ZEROPAGE          Offs=00001A  Size=000000  Align=00001  Fill=0000
    NULL              Offs=000000  Size=000000  Align=00001  Fill=0000
../build/clib_rom.tmp.lib(_scrsize.o):
    CODE              Offs=001AFE  Size=000013  Align=00001  Fill=0000
    RODATA            Offs=000294  Size=000000  Align=00001  Fill=0000
    BSS               Offs=000000  Size=000000  Align=00001  Fill=0000
    DATA              Offs=000000  Size=000000  Align=00001  Fill=0000
    ZEROPAGE          Offs=00001A  Size=000000  Align=00001  Fill=0000
    NULL              Offs=000000  Size=000000  Align=00001  Fill=0000
../build/clib_rom.tmp.lib(incax6.o):
    CODE              Offs=001B11  Size=000005  Align=00001  Fill=0000
    RODATA            Offs=000294  Size=000000  Align=00001  Fill=0000
    BSS               Offs=000000  Size=000000  Align=00001  Fill=0000
    DATA              Offs=000000  Size=000000  Align=00001  Fill=0000
    ZEROPAGE          Offs=00001A  Size=000000  Align=00001  Fill=0000
    NULL              Offs=000000  Size=000000  Align=00001  Fill=0000
../build/clib_rom.tmp.lib(popsreg.o):
    CODE              Offs=001B16  Size=000010  Align=00001  Fill=0000
    RODATA            Offs=000294  Size=000000  Align=00001  Fill=0000
    BSS               Offs=000000  Size=000000  Align=00001  Fill=0000
    DATA              Offs=000000  Size=000000  Align=00001  Fill=0000
    ZEROPAGE          Offs=00001A  Size=000000  Align=00001  Fill=0000
    NULL              Offs=000000  Size=000000  Align=00001  Fill=0000
../build/clib_rom.tmp.lib(mulax9.o):
    CODE              Offs=001B26  Size=000017  Align=00001  Fill=0000
    RODATA            Offs=000294  Size=000000  Align=00001  Fill=0000
    BSS               Offs=000000  Size=000000  Align=00001  Fill=0000
    DATA              Offs=000000  Size=000000  Align=00001  Fill=0000
    ZEROPAGE          Offs=00001A  Size=000000  Align=00001  Fill=0000
    NULL              Offs=000000  Size=000000  Align=00001  Fill=0000
../build/clib_rom.tmp.lib(push3.o):
    CODE              Offs=001B3D  Size=000005  Align=00001  Fill=0000
    RODATA            Offs=000294  Size=000000  Align=00001  Fill=0000
    BSS               Offs=000000  Size=000000  Align=00001  Fill=0000
    DATA              Offs=000000  Size=000000  Align=00001  Fill=0000
    ZEROPAGE          Offs=00001A  Size=000000  Align=00001  Fill=0000
    NULL              Offs=000000  Size=000000  Align=00001  Fill=0000
../build/clib_rom.tmp.lib(asleax4.o):
    CODE              Offs=001B42  Size=000011  Align=00001  Fill=0000
    RODATA            Offs=000294  Size=000000  Align=00001  Fill=0000
    BSS               Offs=000000  Size=000000  Align=00001  Fill=0000
    DATA              Offs=000000  Size=000000  Align=00001  Fill=0000
    ZEROPAGE          Offs=00001A  Size=000000  Align=00001  Fill=0000
    NULL              Offs=000000  Size=000000  Align=00001  Fill=0000
../build/clib_rom.tmp.lib(isgraph.o):
    CODE              Offs=001B53  Size=00000E  Align=00001  Fill=0000
    RODATA            Offs=000294  Size=000000  Align=00001  Fill=0000
    BSS               Offs=000000  Size=000000  Align=00001  Fill=0000
    DATA              Offs=000000  Size=000000  Align=00001  Fill=0000
    ZEROPAGE          Offs=00001A  Size=000000  Align=00001  Fill=0000
    NULL              Offs=000000  Size=000000  Align=00001  Fill=0000
../build/clib_rom.tmp.lib(preservezp.o):
    CODE              Offs=001B61  Size=000020  Align=00001  Fill=0000
    RODATA            Offs=000294  Size=000000  Align=00001  Fill=0000
    BSS               Offs=000000  Size=000000  Align=00001  Fill=0000
    DATA              Offs=000000  Size=000000  Align=00001  Fill=0000
    ZEROPAGE          Offs=00001A  Size=000000  Align=00001  Fill=0000
    NULL              Offs=000000  Size=000000  Align=00001  Fill=0000
../build/clib_rom.tmp.lib(pushwsp.o):
    CODE              Offs=001B81  Size=00001C  Align=00001  Fill=0000
    RODATA            Offs=000294  Size=000000  Align=00001  Fill=0000
    BSS               Offs=000000  Size=000000  Align=00001  Fill=0000
    DATA              Offs=000000  Size=000000  Align=00001  Fill=0000
    ZEROPAGE          Offs=00001A  Size=000000  Align=00001  Fill=0000
    NULL              Offs=000000  Size=000000  Align=00001  Fill=0000
../build/clib_rom.tmp.lib(printstr.o):
    CODE              Offs=001B9D  Size=00000F  Align=00001  Fill=0000
    RODATA            Offs=000294  Size=000000  Align=00001  Fill=0000
    BSS               Offs=000000  Size=000000  Align=00001  Fill=0000
    DATA              Offs=000000  Size=000000  Align=00001  Fill=0000
    ZEROPAGE          Offs=00001A  Size=000000  Align=00001  Fill=0000
    NULL              Offs=000000  Size=000000  Align=00001  Fill=0000
../build/clib_rom.tmp.lib(init_stack.o):
    CODE              Offs=001BAC  Size=000009  Align=00001  Fill=0000
    RODATA            Offs=000294  Size=000000  Align=00001  Fill=0000
    BSS               Offs=000000  Size=000000  Align=00001  Fill=0000
    DATA              Offs=000000  Size=000000  Align=00001  Fill=0000
    ZEROPAGE          Offs=00001A  Size=000000  Align=00001  Fill=0000
    NULL              Offs=000000  Size=000000  Align=00001  Fill=0000
../build/clib_rom.tmp.lib(lbneg.o):
    CODE              Offs=001BB5  Size=000011  Align=00001  Fill=0000
    RODATA            Offs=000294  Size=000000  Align=00001  Fill=0000
    BSS               Offs=000000  Size=000000  Align=00001  Fill=0000
    DATA              Offs=000000  Size=000000  Align=00001  Fill=0000
    ZEROPAGE          Offs=00001A  Size=000000  Align=00001  Fill=0000
    NULL              Offs=000000  Size=000000  Align=00001  Fill=0000
../build/clib_rom.tmp.lib(incax8.o):
    CODE              Offs=001BC6  Size=000005  Align=00001  Fill=0000
    RODATA            Offs=000294  Size=000000  Align=00001  Fill=0000
    BSS               Offs=000000  Size=000000  Align=00001  Fill=0000
    DATA              Offs=000000  Size=000000  Align=00001  Fill=0000
    ZEROPAGE          Offs=00001A  Size=000000  Align=00001  Fill=0000
    NULL              Offs=000000  Size=000000  Align=00001  Fill=0000
../build/clib_rom.tmp.lib(mul40.o):
    CODE              Offs=001BCB  Size=000021  Align=00001  Fill=0000
    RODATA            Offs=000294  Size=000000  Align=00001  Fill=0000
    BSS               Offs=000000  Size=000000  Align=00001  Fill=0000
    DATA              Offs=000000  Size=000000  Align=00001  Fill=0000
    ZEROPAGE          Offs=00001A  Size=000000  Align=00001  Fill=0000
    NULL              Offs=000000  Size=000000  Align=00001  Fill=0000
../build/clib_rom.tmp.lib(lne.o):
    CODE              Offs=001BEC  Size=000006  Align=00001  Fill=0000
    RODATA            Offs=000294  Size=000000  Align=00001  Fill=0000
    BSS               Offs=000000  Size=000000  Align=00001  Fill=0000
    DATA              Offs=000000  Size=000000  Align=00001  Fill=0000
    ZEROPAGE          Offs=00001A  Size=000000  Align=00001  Fill=0000
    NULL              Offs=000000  Size=000000  Align=00001  Fill=0000
../build/clib_rom.tmp.lib(subysp.o):
    CODE              Offs=001BF2  Size=00000D  Align=00001  Fill=0000
    RODATA            Offs=000294  Size=000000  Align=00001  Fill=0000
    BSS               Offs=000000  Size=000000  Align=00001  Fill=0000
    DATA              Offs=000000  Size=000000  Align=00001  Fill=0000
    ZEROPAGE          Offs=00001A  Size=000000  Align=00001  Fill=0000
    NULL              Offs=000000  Size=000000  Align=00001  Fill=0000
../build/clib_rom.tmp.lib(lcmp.o):
    CODE              Offs=001BFF  Size=00003B  Align=00001  Fill=0000
    RODATA            Offs=000294  Size=000000  Align=00001  Fill=0000
    BSS               Offs=000000  Size=000000  Align=00001  Fill=0000
    DATA              Offs=000000  Size=000000  Align=00001  Fill=0000
    ZEROPAGE          Offs=00001A  Size=000000  Align=00001  Fill=0000
    NULL              Offs=000000  Size=000000  Align=00001  Fill=0000
../build/clib_rom.tmp.lib(ldaxsp.o):
    CODE              Offs=001C3A  Size=000009  Align=00001  Fill=0000
    RODATA            Offs=000294  Size=000000  Align=00001  Fill=0000
    BSS               Offs=000000  Size=000000  Align=00001  Fill=0000
    DATA              Offs=000000  Size=000000  Align=00001  Fill=0000
    ZEROPAGE          Offs=00001A  Size=000000  Align=00001  Fill=0000
    NULL              Offs=000000  Size=000000  Align=00001  Fill=0000
../build/clib_rom.tmp.lib(decsp4.o):
    CODE              Offs=001C43  Size=00000D  Align=00001  Fill=0000
    RODATA            Offs=000294  Size=000000  Align=00001  Fill=0000
    BSS               Offs=000000  Size=000000  Align=00001  Fill=0000
    DATA              Offs=000000  Size=000000  Align=00001  Fill=0000
    ZEROPAGE          Offs=00001A  Size=000000  Align=00001  Fill=0000
    NULL              Offs=000000  Size=000000  Align=00001  Fill=0000


Segment list:
-------------
Name                   Start     End    Size  Align
----------------------------------------------------
BSS                   000000  000000  000000  00001
DATA                  000000  000000  000000  00001
NULL                  000000  000000  000000  00001
ZEROPAGE              000050  000069  00001A  00001
HEADER                008000  008030  000031  00001
CODE                  008031  009C80  001C50  00001
RODATA                009C81  009F14  000294  00001


Exports list by name:
---------------------
ARGSV                     000214 REA    BGETV                     000216 REA    
BPUTV                     000218 REA    BRKV                      000202 REA    
BYTEV                     00020A REA    CLIV                      000208 REA    
CNPV                      00022E REA    EVNTV                     000220 REA    
FILEV                     000212 REA    FINDV                     00021C REA    
FSCV                      00021E REA    GBPBV                     00021A REA    
GSINIT                    00FFC2 REA    GSREAD                    00FFC5 REA    
IND1V                     000230 REA    IND2V                     000232 REA    
IND3V                     000234 REA    INSV                      00022A REA    
IRQ1V                     000204 REA    IRQ2V                     000206 REA    
KEYV                      000228 REA    NETV                      000224 REA    
NVRDCH                    00FFCB REA    NVWRCH                    00FFC8 REA    
OSARGS                    00FFDA REA    OSASCI                    00FFE3 REA    
OSBGET                    00FFD7 REA    OSBPUT                    00FFD4 REA    
OSBYTE                    00FFF4 REA    OSCLI                     00FFF7 REA    
OSEVEN                    00FFBF REA    OSFILE                    00FFDD REA    
OSFIND                    00FFCE REA    OSGBPB                    00FFD1 REA    
OSNEWL                    00FFE7 REA    OSRDCH                    00FFE0 REA    
OSRDRM                    00FFB9 REA    OSWORD                    00FFF1 REA    
OSWRCH                    00FFEE REA    RDCHV                     000210 REA    
REMV                      00022C REA    UPTV                      000222 REA    
USERV                     000200 REA    VDUV                      000226 REA    
VDU_WKSP                  000300 REA    WORDV                     00020C REA    
WRCHV                     00020E REA    _OSASCI                   00FFE3 REA    
_OSWRCH                   00FFEE REA    __MAIN_FILEOFFS__         000000  EA    
__MAIN_LAST__             009F15  LA    __MAIN_SIZE__             004000  EA    
__MAIN_START__            008000  LA    __ZP_FILEOFFS__           000000  EA    
__ZP_LAST__               00006A  LA    __ZP_SIZE__               000020  EA    
__ZP_START__              000050  LA    __bzero                   008E54 RLA    
__cos                     008F1E RLA    __ctype                   009CA2 RLA    
__ctypeidx                009CAD RLA    __heapblocksize           0098D4 RLA    
__hextab                  009C92 RLA    __longminstr              009C81 RLA    
__osmaperrno              008336 RLA    __setjmp                  009704 RLA    
__sin                     008F32 RLA    __swap                    0098A5 RLA    
__sys_errlist             009D2D RLA    __sysuname                008253 REA    
_abs                      008AF6 RLA    _atoi                     0093C3 RLA    
_atol                     0093C3 RLA    _bzero                    008E54 RLA    
_cclear                   0084EE RLA    _cclearxy                 0084E6 RLA    
_chline                   009353 RLA    _chlinexy                 00934B RLA    
_closedir                 008B57 RLA    _cputc                    0099DC RLA    
_cputcxy                  0099D4 RLA    _decompress_lz4           00947A RLA    
_div                      008B74 RLA    _doesclrscrafterexit      009272 REA    
_getcpu                   009900 RLA    _gotox                    0081E3 RLA    
_gotoxy                   0084C9 RLA    _gotoy                    0087DB RLA    
_idiv32by16r16            0083C8 RLA    _imaxabs                  008F9B RLA    
_imul16x16r32             0091BD RLA    _imul8x8r16               008174 RLA    
_isalnum                  008709 RLA    _isalpha                  0092E0 RLA    
_isascii                  00976F RLA    _isblank                  009294 RLA    
_iscntrl                  00816C RLA    _isdigit                  0091B5 RLA    
_isgraph                  009B84 RLA    _islower                  00900A RLA    
_isprint                  008EB1 RLA    _ispunct                  008AC7 RLA    
_isspace                  00824B RLA    _isupper                  00974C RLA    
_isxdigit                 009636 RLA    _itoa                     008909 RLA    
_kbhit                    008E04 RLA    _labs                     008F9B RLA    
_longjmp                  008CE8 RLA    _ltoa                     008C29 RLA    
_memchr                   009141 RLA    _memcmp                   00923C RLA    
_memcpy                   00865A RLA    _memmove                  0092E8 RLA    
_memset                   008E5C RLA    _mul20                    009276 RLA    
_mul40                    009BFC RLA    _os_generate_error        0089F6 RLA    
_strcasecmp               00845B RLA    _strcat                   0086CB RLA    
_strchr                   00809B RLA    _strcmp                   008AD5 RLA    
_strcoll                  008AD5 REA    _strcpy                   008FA9 RLA    
_strcspn                  00817C RLA    _stricmp                  00845B RLA    
_strlen                   009085 RLA    _strlower                 0089B3 RLA    
_strlwr                   0089B3 RLA    _strncasecmp              009A7B RLA    
_strncat                  0090E8 RLA    _strncmp                  008749 RLA    
_strncpy                  008789 RLA    _strnicmp                 009A7B RLA    
_strpbrk                  009645 RLA    _strrchr                  0091CE RLA    
_strspn                   0095A5 RLA    _strstr                   0082C0 RLA    
_strupper                 008EBB RLA    _strupr                   008EBB RLA    
_strxfrm                  0097A3 RLA    _system                   008350 RLA    
_toascii                  008E01 RLA    _tolower                  008122 RLA    
_toupper                  008F0C RLA    _udiv32by16r16            0080CB RLA    
_ultoa                    008C6A RLA    _umul16x16r32             009A71 RLA    
_umul16x8r32              0085D3 RLA    _umul8x8r16               008570 RLA    
_utoa                     00894B RLA    _wherex                   009A63 RLA    
_wherey                   00977A RLA    _xos_generate_error       0089F6 RLA    
addeq0sp                  00871E RLA    addeqysp                  008720 RLA    
addysp                    008E1B RLA    addysp1                   008E1A RLA    
along                     0084D9 RLA    aslax1                    009A69 RLA    
aslax2                    0089A8 RLA    aslax3                    008989 RLA    
aslax4                    0088B4 RLA    aslaxy                    008DB1 RLA    
asleax1                   008BDB RLA    asleax2                   009338 RLA    
asleax3                   009846 RLA    asleax4                   009B73 RLA    
asrax1                    0090DE RLA    asrax2                    009132 RLA    
asrax3                    008531 RLA    asrax4                    00937B RLA    
asraxy                    00857F RLA    asreax1                   00883B RLA    
asreax2                   008106 RLA    asreax3                   0099B2 RLA    
asreax4                   00851C RLA    aulong                    0084DF RLA    
axlong                    008633 RLA    axulong                   008639 RLA    
bcasta                    0083C0 RLA    bcastax                   0083BC RLA    
bcasteax                  0092B9 RLA    bnega                     008CAA RLA    
bnegax                    008CA6 RLA    bnegeax                   009BE6 RLA    
booleq                    008423 RLA    boolge                    008434 RLA    
boolgt                    008432 RLA    boolle                    00842A RLA    
boollt                    00842C RLA    boolne                    00841D RLA    
booluge                   008444 RLA    boolugt                   008442 RLA    
boolule                   00843A RLA    boolult                   00843C RLA    
bpushbsp                  008349 RLA    bpushbysp                 00834B RLA    
callax                    00963E RLA    callptr4                  00811F RLA    
complax                   0090B2 RLA    compleax                  009754 RLA    
ctypemask                 009173 RLA    ctypemaskdirect           009177 RLA    
decax1                    009745 RLA    decax2                    0086C4 RLA    
decax3                    0088D3 RLA    decax4                    0081F8 RLA    
decax5                    008F94 RLA    decax6                    0090A0 RLA    
decax7                    008782 RLA    decax8                    0087EB RLA    
decaxy                    008414 RLA    deceaxy                   009366 RLA    
decsp1                    0080C2 RLA    decsp2                    008D10 RLA    
decsp3                    008D1D RLA    decsp4                    009C74 RLA    
decsp5                    008F87 RLA    decsp6                    008277 RLA    
decsp7                    008711 RLA    decsp8                    0095D2 RLA    
enter                     0087CD RLA    getlop                    0099FA RLA    
idiv32by16r16             008A47 RLA    imul16x16r32              00849E RLA    
imul8x8r16                009036 RLA    imul8x8r16m               009038 RLA    
incax1                    0081FF RLA    incax2                    00907E RLA    
incax3                    008CC3 RLA    incax4                    008294 RLA    
incax5                    0080E7 RLA    incax6                    009B42 RLA    
incax7                    008CBE RLA    incax8                    009BF7 RLA    
incaxy                    008296 RLA    inceaxy                   008320 RLA    
incsp1                    009729 RLA    incsp2                    008AA8 RLA    
incsp3                    0081F3 RLA    incsp4                    0092C8 RLA    
incsp5                    0090A7 RLA    incsp6                    00909B RLA    
incsp7                    009206 RLA    incsp8                    00854B RLA    
init_stack                009BDD RLA    laddeq                    00888F RLA    
laddeq0sp                 00885E RLA    laddeq1                   008887 RLA    
laddeqa                   008889 RLA    laddeqysp                 008860 RLA    
ldaidx                    008BFB RLA    ldau00sp                  008284 RLA    
ldau0ysp                  008286 RLA    ldaui0sp                  0096F2 RLA    
ldauidx                   00872F RLA    ldauiysp                  0096F4 RLA    
ldax0sp                   009C6B RLA    ldaxi                     0086FC RLA    
ldaxidx                   0086FE RLA    ldaxysp                   009C6D RLA    
ldeax0sp                  00978B RLA    ldeaxi                    009823 RLA    
ldeaxidx                  009825 RLA    ldeaxysp                  00978D RLA    
leaa0sp                   008696 RLA    leaaxsp                   008698 RLA    
leave                     0092A9 RLA    leave0                    00929E RLA    
leave00                   00929C RLA    leavey                    0092A6 RLA    
leavey0                   0092A4 RLA    leavey00                  0092A2 RLA    
lsubeq                    009213 RLA    lsubeq0sp                 008224 RLA    
lsubeq1                   00920B RLA    lsubeqa                   00920D RLA    
lsubeqysp                 008226 RLA    memcpy_getparams          008683 RLA    
memcpy_upwards            00865D RLA    mul8x16                   0081AB RLA    
mul8x16a                  0081B5 RLA    mulax10                   0097E5 RLA    
mulax3                    008FF9 RLA    mulax5                    008BE7 RLA    
mulax6                    008F71 RLA    mulax7                    0085BA RLA    
mulax9                    009B57 RLA    negax                     008AFA RLA    
negeax                    0090C0 RLA    osfile_alloc_block        008881 RLA    
osfile_callosfile         0097DD RLA    osfile_retA               0091B5 RLA    
osfile_ret_read_delete_load 008D58 RLA    osfile_retdword           009191 RLA    
osfile_store_attr         0090AC RLA    osfile_store_exec         008628 RLA    
osfile_store_len          008A77 RLA    osfile_store_load         0088C5 RLA    
popa                      008A94 RLA    popax                     008AA0 RLA    
popeax                    009730 RLA    poplsargs                 008B89 RLA    
popptr1                   008312 RLA    popsargsudiv16            0084FC RLA    
popsreg                   009B47 RLA    preservezp                009B92 RLA    
print0                    0083E2 RLA    printhex                  0085DF RLA    
printstr                  009BCE RLA    ptr1                      000058 RLZ    
ptr2                      00005A RLZ    ptr3                      00005C RLZ    
ptr4                      00005E RLZ    push0                     008640 RLA    
push0ax                   009B11 RLA    push1                     0090BB RLA    
push2                     008206 RLA    push3                     009B6E RLA    
push4                     00979E RLA    push5                     00862E RLA    
push6                     008405 RLA    push7                     008331 RLA    
pusha                     008D74 RLA    pusha0                    008642 RLA    
pusha0sp                  008D70 RLA    pushaFF                   009361 RLA    
pushax                    008644 RLA    pushaysp                  008D72 RLA    
pushb                     0083F7 RLA    pushbidx                  0083EF RLA    
pushbsp                   0091C7 RLA    pushbysp                  0091C9 RLA    
pushc0                    008FD0 RLA    pushc1                    008DDD RLA    
pushc2                    009079 RLA    pusheax                   009B17 RLA    
pushl0                    009B0E RLA    pushlysp                  0082AA RLA    
pushptr1idx               009AE7 RLA    pushw                     009AE1 RLA    
pushw0sp                  009BB2 RLA    pushwidx                  009AE3 RLA    
pushwysp                  009BB4 RLA    putchar                   0099DF RLA    
regbank                   000064 RLZ    regsave                   000054 RLZ    
regswap                   0092CD RLA    regswap1                  00829F RLA    
regswap2                  00855A RLA    resteax                   0080F9 RLA    
restorezp                 009BA2 RLA    return0                   009272 RLA    
return1                   008096 RLA    rwcommon                  008D86 RLA    
saveeax                   0080EC RLA    screensize                009B2F RLA    
shlax1                    009A69 RLA    shlax2                    0089A8 RLA    
shlax3                    008989 RLA    shlax4                    0088B4 RLA    
shlaxy                    008DB1 RLA    shleax1                   008BDB RLA    
shleax2                   009338 RLA    shleax3                   009846 RLA    
shleax4                   009B73 RLA    shrax1                    0088CB RLA    
shrax2                    009AD6 RLA    shrax3                    00833B RLA    
shrax4                    008738 RLA    shraxy                    00804F RLA    
shreax1                   00983A RLA    shreax2                   00884B RLA    
shreax3                   00807C RLA    shreax4                   008AB6 RLA    
sp                        000050 RLZ    sreg                      000052 RLZ    
staspidx                  008032 RLA    stax0sp                   009780 RLA    
staxspidx                 0087F2 RLA    staxysp                   009782 RLA    
steax0sp                  008601 RLA    steaxspidx                0086A2 RLA    
steaxysp                  008603 RLA    subeq0sp                  009988 RLA    
subeqysp                  00998A RLA    subysp                    009C23 RLA    
swapstk                   008A7D RLA    tmp1                      000060 RLZ    
tmp2                      000061 RLZ    tmp3                      000062 RLZ    
tmp4                      000063 RLZ    tosadd0ax                 0097FE RLA    
tosadda0                  0089DA RLA    tosaddax                  0089DC RLA    
tosaddeax                 009804 RLA    tosand0ax                 009612 RLA    
tosanda0                  0093AD RLA    tosandax                  0093AF RLA    
tosandeax                 009618 RLA    tosaslax                  008DAA RLA    
tosasleax                 0097C3 RLA    tosasrax                  008578 RLA    
tosasreax                 009AF0 RLA    tosdiv0ax                 00945E RLA    
tosdiva0                  0096D3 RLA    tosdivax                  0096D5 RLA    
tosdiveax                 009464 RLA    toseq00                   009454 RLA    
toseqa0                   009456 RLA    toseqax                   009458 RLA    
toseqeax                  008545 RLA    tosge00                   00840A RLA    
tosgea0                   00840C RLA    tosgeax                   00840E RLA    
tosgeeax                  008F06 RLA    tosgt00                   0096E8 RLA    
tosgta0                   0096EA RLA    tosgtax                   0096EC RLA    
tosgteax                  008E14 RLA    tosicmp                   00880F RLA    
tosicmp0                  00880D RLA    tosint                    0091F2 RLA    
toslcmp                   009C30 RLA    tosle00                   00897F RLA    
toslea0                   008981 RLA    tosleax                   008983 RLA    
tosleeax                  008DE2 RLA    toslong                   008152 RLA    
toslt00                   0093A3 RLA    toslta0                   0093A5 RLA    
tosltax                   0093A7 RLA    toslteax                  008FA3 RLA    
tosmod0ax                 008CC8 RLA    tosmoda0                  0088DA RLA    
tosmodax                  0088DC RLA    tosmodeax                 008CCE RLA    
tosmul0ax                 009677 RLA    tosmula0                  0081A9 RLA    
tosmulax                  009860 RLA    tosmuleax                 00967D RLA    
tosne00                   008550 RLA    tosnea0                   008552 RLA    
tosneax                   008554 RLA    tosneeax                  009C1D RLA    
tosor0ax                  008EE2 RLA    tosora0                   008616 RLA    
tosorax                   008618 RLA    tosoreax                  008EE8 RLA    
tosrsub0ax                008397 RLA    tosrsuba0                 009975 RLA    
tosrsubax                 009977 RLA    tosrsubeax                00839D RLA    
tosshlax                  008DAA RLA    tosshleax                 0097C3 RLA    
tosshrax                  008048 RLA    tosshreax                 00901C RLA    
tossub0ax                 008A20 RLA    tossuba0                  00999D RLA    
tossubax                  00999F RLA    tossubeax                 008A26 RLA    
tosudiv0ax                0099E9 RLA    tosudiva0                 008B08 RLA    
tosudivax                 008B0A RLA    tosudiveax                0099EF RLA    
tosuge00                  009012 RLA    tosugea0                  009014 RLA    
tosugeax                  009016 RLA    tosugeeax                 0085B4 RLA    
tosugt00                  008C07 RLA    tosugta0                  008C09 RLA    
tosugtax                  008C0B RLA    tosugteax                 009769 RLA    
tosule00                  008CB4 RLA    tosulea0                  008CB6 RLA    
tosuleax                  008CB8 RLA    tosuleeax                 0095DF RLA    
tosulong                  008134 RLA    tosult00                  009272 REA    
tosulta0                  008FC8 RLA    tosultax                  008FCA RLA    
tosulteax                 0093BD RLA    tosumod0ax                008DE8 RLA    
tosumoda0                 008997 RLA    tosumodax                 008999 RLA    
tosumodeax                008DEE RLA    tosumul0ax                009677 RLA    
tosumula0                 0081A9 RLA    tosumulax                 009860 RLA    
tosumuleax                00967D RLA    tosxor0ax                 008FD5 RLA    
tosxora0                  008449 RLA    tosxorax                  00844B RLA    
tosxoreax                 008FDB RLA    tsteax                    009394 RLA    
udiv16                    008B19 RLA    udiv32                    009A1E RLA    
udiv32by16r16             008366 RLA    udiv32by16r16m            00836A RLA    
umul16x16r16              008E28 RLA    umul16x16r16m             008E2C RLA    
umul16x16r32              008E28 RLA    umul16x16r32m             008E2C RLA    
umul8x16r16               0095E5 RLA    umul8x16r16m              0095E9 RLA    
umul8x16r24               0095E5 RLA    umul8x16r24m              0095E9 RLA    
umul8x8r16                00820B RLA    umul8x8r16m               00820D RLA    
utscopy                   008253 RLA    utsdata                   009EFF RLA    
utsteax                   009394 RLA    xosfile_ret_read_delete_load 008D62 RLA    



Exports list by value:
----------------------
__MAIN_FILEOFFS__         000000  EA    __ZP_FILEOFFS__           000000  EA    
__ZP_SIZE__               000020  EA    __ZP_START__              000050  LA    
sp                        000050 RLZ    sreg                      000052 RLZ    
regsave                   000054 RLZ    ptr1                      000058 RLZ    
ptr2                      00005A RLZ    ptr3                      00005C RLZ    
ptr4                      00005E RLZ    tmp1                      000060 RLZ    
tmp2                      000061 RLZ    tmp3                      000062 RLZ    
tmp4                      000063 RLZ    regbank                   000064 RLZ    
__ZP_LAST__               00006A  LA    USERV                     000200 REA    
BRKV                      000202 REA    IRQ1V                     000204 REA    
IRQ2V                     000206 REA    CLIV                      000208 REA    
BYTEV                     00020A REA    WORDV                     00020C REA    
WRCHV                     00020E REA    RDCHV                     000210 REA    
FILEV                     000212 REA    ARGSV                     000214 REA    
BGETV                     000216 REA    BPUTV                     000218 REA    
GBPBV                     00021A REA    FINDV                     00021C REA    
FSCV                      00021E REA    EVNTV                     000220 REA    
UPTV                      000222 REA    NETV                      000224 REA    
VDUV                      000226 REA    KEYV                      000228 REA    
INSV                      00022A REA    REMV                      00022C REA    
CNPV                      00022E REA    IND1V                     000230 REA    
IND2V                     000232 REA    IND3V                     000234 REA    
VDU_WKSP                  000300 REA    __MAIN_SIZE__             004000  EA    
__MAIN_START__            008000  LA    staspidx                  008032 RLA    
tosshrax                  008048 RLA    shraxy                    00804F RLA    
shreax3                   00807C RLA    return1                   008096 RLA    
_strchr                   00809B RLA    decsp1                    0080C2 RLA    
_udiv32by16r16            0080CB RLA    incax5                    0080E7 RLA    
saveeax                   0080EC RLA    resteax                   0080F9 RLA    
asreax2                   008106 RLA    callptr4                  00811F RLA    
_tolower                  008122 RLA    tosulong                  008134 RLA    
toslong                   008152 RLA    _iscntrl                  00816C RLA    
_imul8x8r16               008174 RLA    _strcspn                  00817C RLA    
tosmula0                  0081A9 RLA    tosumula0                 0081A9 RLA    
mul8x16                   0081AB RLA    mul8x16a                  0081B5 RLA    
_gotox                    0081E3 RLA    incsp3                    0081F3 RLA    
decax4                    0081F8 RLA    incax1                    0081FF RLA    
push2                     008206 RLA    umul8x8r16                00820B RLA    
umul8x8r16m               00820D RLA    lsubeq0sp                 008224 RLA    
lsubeqysp                 008226 RLA    _isspace                  00824B RLA    
__sysuname                008253 REA    utscopy                   008253 RLA    
decsp6                    008277 RLA    ldau00sp                  008284 RLA    
ldau0ysp                  008286 RLA    incax4                    008294 RLA    
incaxy                    008296 RLA    regswap1                  00829F RLA    
pushlysp                  0082AA RLA    _strstr                   0082C0 RLA    
popptr1                   008312 RLA    inceaxy                   008320 RLA    
push7                     008331 RLA    __osmaperrno              008336 RLA    
shrax3                    00833B RLA    bpushbsp                  008349 RLA    
bpushbysp                 00834B RLA    _system                   008350 RLA    
udiv32by16r16             008366 RLA    udiv32by16r16m            00836A RLA    
tosrsub0ax                008397 RLA    tosrsubeax                00839D RLA    
bcastax                   0083BC RLA    bcasta                    0083C0 RLA    
_idiv32by16r16            0083C8 RLA    print0                    0083E2 RLA    
pushbidx                  0083EF RLA    pushb                     0083F7 RLA    
push6                     008405 RLA    tosge00                   00840A RLA    
tosgea0                   00840C RLA    tosgeax                   00840E RLA    
decaxy                    008414 RLA    boolne                    00841D RLA    
booleq                    008423 RLA    boolle                    00842A RLA    
boollt                    00842C RLA    boolgt                    008432 RLA    
boolge                    008434 RLA    boolule                   00843A RLA    
boolult                   00843C RLA    boolugt                   008442 RLA    
booluge                   008444 RLA    tosxora0                  008449 RLA    
tosxorax                  00844B RLA    _strcasecmp               00845B RLA    
_stricmp                  00845B RLA    imul16x16r32              00849E RLA    
_gotoxy                   0084C9 RLA    along                     0084D9 RLA    
aulong                    0084DF RLA    _cclearxy                 0084E6 RLA    
_cclear                   0084EE RLA    popsargsudiv16            0084FC RLA    
asreax4                   00851C RLA    asrax3                    008531 RLA    
toseqeax                  008545 RLA    incsp8                    00854B RLA    
tosne00                   008550 RLA    tosnea0                   008552 RLA    
tosneax                   008554 RLA    regswap2                  00855A RLA    
_umul8x8r16               008570 RLA    tosasrax                  008578 RLA    
asraxy                    00857F RLA    tosugeeax                 0085B4 RLA    
mulax7                    0085BA RLA    _umul16x8r32              0085D3 RLA    
printhex                  0085DF RLA    steax0sp                  008601 RLA    
steaxysp                  008603 RLA    tosora0                   008616 RLA    
tosorax                   008618 RLA    osfile_store_exec         008628 RLA    
push5                     00862E RLA    axlong                    008633 RLA    
axulong                   008639 RLA    push0                     008640 RLA    
pusha0                    008642 RLA    pushax                    008644 RLA    
_memcpy                   00865A RLA    memcpy_upwards            00865D RLA    
memcpy_getparams          008683 RLA    leaa0sp                   008696 RLA    
leaaxsp                   008698 RLA    steaxspidx                0086A2 RLA    
decax2                    0086C4 RLA    _strcat                   0086CB RLA    
ldaxi                     0086FC RLA    ldaxidx                   0086FE RLA    
_isalnum                  008709 RLA    decsp7                    008711 RLA    
addeq0sp                  00871E RLA    addeqysp                  008720 RLA    
ldauidx                   00872F RLA    shrax4                    008738 RLA    
_strncmp                  008749 RLA    decax7                    008782 RLA    
_strncpy                  008789 RLA    enter                     0087CD RLA    
_gotoy                    0087DB RLA    decax8                    0087EB RLA    
staxspidx                 0087F2 RLA    tosicmp0                  00880D RLA    
tosicmp                   00880F RLA    asreax1                   00883B RLA    
shreax2                   00884B RLA    laddeq0sp                 00885E RLA    
laddeqysp                 008860 RLA    osfile_alloc_block        008881 RLA    
laddeq1                   008887 RLA    laddeqa                   008889 RLA    
laddeq                    00888F RLA    aslax4                    0088B4 RLA    
shlax4                    0088B4 RLA    osfile_store_load         0088C5 RLA    
shrax1                    0088CB RLA    decax3                    0088D3 RLA    
tosmoda0                  0088DA RLA    tosmodax                  0088DC RLA    
_itoa                     008909 RLA    _utoa                     00894B RLA    
tosle00                   00897F RLA    toslea0                   008981 RLA    
tosleax                   008983 RLA    aslax3                    008989 RLA    
shlax3                    008989 RLA    tosumoda0                 008997 RLA    
tosumodax                 008999 RLA    aslax2                    0089A8 RLA    
shlax2                    0089A8 RLA    _strlower                 0089B3 RLA    
_strlwr                   0089B3 RLA    tosadda0                  0089DA RLA    
tosaddax                  0089DC RLA    _os_generate_error        0089F6 RLA    
_xos_generate_error       0089F6 RLA    tossub0ax                 008A20 RLA    
tossubeax                 008A26 RLA    idiv32by16r16             008A47 RLA    
osfile_store_len          008A77 RLA    swapstk                   008A7D RLA    
popa                      008A94 RLA    popax                     008AA0 RLA    
incsp2                    008AA8 RLA    shreax4                   008AB6 RLA    
_ispunct                  008AC7 RLA    _strcmp                   008AD5 RLA    
_strcoll                  008AD5 REA    _abs                      008AF6 RLA    
negax                     008AFA RLA    tosudiva0                 008B08 RLA    
tosudivax                 008B0A RLA    udiv16                    008B19 RLA    
_closedir                 008B57 RLA    _div                      008B74 RLA    
poplsargs                 008B89 RLA    asleax1                   008BDB RLA    
shleax1                   008BDB RLA    mulax5                    008BE7 RLA    
ldaidx                    008BFB RLA    tosugt00                  008C07 RLA    
tosugta0                  008C09 RLA    tosugtax                  008C0B RLA    
_ltoa                     008C29 RLA    _ultoa                    008C6A RLA    
bnegax                    008CA6 RLA    bnega                     008CAA RLA    
tosule00                  008CB4 RLA    tosulea0                  008CB6 RLA    
tosuleax                  008CB8 RLA    incax7                    008CBE RLA    
incax3                    008CC3 RLA    tosmod0ax                 008CC8 RLA    
tosmodeax                 008CCE RLA    _longjmp                  008CE8 RLA    
decsp2                    008D10 RLA    decsp3                    008D1D RLA    
osfile_ret_read_delete_load 008D58 RLA    xosfile_ret_read_delete_load 008D62 RLA    
pusha0sp                  008D70 RLA    pushaysp                  008D72 RLA    
pusha                     008D74 RLA    rwcommon                  008D86 RLA    
tosaslax                  008DAA RLA    tosshlax                  008DAA RLA    
aslaxy                    008DB1 RLA    shlaxy                    008DB1 RLA    
pushc1                    008DDD RLA    tosleeax                  008DE2 RLA    
tosumod0ax                008DE8 RLA    tosumodeax                008DEE RLA    
_toascii                  008E01 RLA    _kbhit                    008E04 RLA    
tosgteax                  008E14 RLA    addysp1                   008E1A RLA    
addysp                    008E1B RLA    umul16x16r16              008E28 RLA    
umul16x16r32              008E28 RLA    umul16x16r16m             008E2C RLA    
umul16x16r32m             008E2C RLA    __bzero                   008E54 RLA    
_bzero                    008E54 RLA    _memset                   008E5C RLA    
_isprint                  008EB1 RLA    _strupper                 008EBB RLA    
_strupr                   008EBB RLA    tosor0ax                  008EE2 RLA    
tosoreax                  008EE8 RLA    tosgeeax                  008F06 RLA    
_toupper                  008F0C RLA    __cos                     008F1E RLA    
__sin                     008F32 RLA    mulax6                    008F71 RLA    
decsp5                    008F87 RLA    decax5                    008F94 RLA    
_imaxabs                  008F9B RLA    _labs                     008F9B RLA    
toslteax                  008FA3 RLA    _strcpy                   008FA9 RLA    
tosulta0                  008FC8 RLA    tosultax                  008FCA RLA    
pushc0                    008FD0 RLA    tosxor0ax                 008FD5 RLA    
tosxoreax                 008FDB RLA    mulax3                    008FF9 RLA    
_islower                  00900A RLA    tosuge00                  009012 RLA    
tosugea0                  009014 RLA    tosugeax                  009016 RLA    
tosshreax                 00901C RLA    imul8x8r16                009036 RLA    
imul8x8r16m               009038 RLA    pushc2                    009079 RLA    
incax2                    00907E RLA    _strlen                   009085 RLA    
incsp6                    00909B RLA    decax6                    0090A0 RLA    
incsp5                    0090A7 RLA    osfile_store_attr         0090AC RLA    
complax                   0090B2 RLA    push1                     0090BB RLA    
negeax                    0090C0 RLA    asrax1                    0090DE RLA    
_strncat                  0090E8 RLA    asrax2                    009132 RLA    
_memchr                   009141 RLA    ctypemask                 009173 RLA    
ctypemaskdirect           009177 RLA    osfile_retdword           009191 RLA    
_isdigit                  0091B5 RLA    osfile_retA               0091B5 RLA    
_imul16x16r32             0091BD RLA    pushbsp                   0091C7 RLA    
pushbysp                  0091C9 RLA    _strrchr                  0091CE RLA    
tosint                    0091F2 RLA    incsp7                    009206 RLA    
lsubeq1                   00920B RLA    lsubeqa                   00920D RLA    
lsubeq                    009213 RLA    _memcmp                   00923C RLA    
_doesclrscrafterexit      009272 REA    return0                   009272 RLA    
tosult00                  009272 REA    _mul20                    009276 RLA    
_isblank                  009294 RLA    leave00                   00929C RLA    
leave0                    00929E RLA    leavey00                  0092A2 RLA    
leavey0                   0092A4 RLA    leavey                    0092A6 RLA    
leave                     0092A9 RLA    bcasteax                  0092B9 RLA    
incsp4                    0092C8 RLA    regswap                   0092CD RLA    
_isalpha                  0092E0 RLA    _memmove                  0092E8 RLA    
asleax2                   009338 RLA    shleax2                   009338 RLA    
_chlinexy                 00934B RLA    _chline                   009353 RLA    
pushaFF                   009361 RLA    deceaxy                   009366 RLA    
asrax4                    00937B RLA    tsteax                    009394 RLA    
utsteax                   009394 RLA    toslt00                   0093A3 RLA    
toslta0                   0093A5 RLA    tosltax                   0093A7 RLA    
tosanda0                  0093AD RLA    tosandax                  0093AF RLA    
tosulteax                 0093BD RLA    _atoi                     0093C3 RLA    
_atol                     0093C3 RLA    toseq00                   009454 RLA    
toseqa0                   009456 RLA    toseqax                   009458 RLA    
tosdiv0ax                 00945E RLA    tosdiveax                 009464 RLA    
_decompress_lz4           00947A RLA    _strspn                   0095A5 RLA    
decsp8                    0095D2 RLA    tosuleeax                 0095DF RLA    
umul8x16r16               0095E5 RLA    umul8x16r24               0095E5 RLA    
umul8x16r16m              0095E9 RLA    umul8x16r24m              0095E9 RLA    
tosand0ax                 009612 RLA    tosandeax                 009618 RLA    
_isxdigit                 009636 RLA    callax                    00963E RLA    
_strpbrk                  009645 RLA    tosmul0ax                 009677 RLA    
tosumul0ax                009677 RLA    tosmuleax                 00967D RLA    
tosumuleax                00967D RLA    tosdiva0                  0096D3 RLA    
tosdivax                  0096D5 RLA    tosgt00                   0096E8 RLA    
tosgta0                   0096EA RLA    tosgtax                   0096EC RLA    
ldaui0sp                  0096F2 RLA    ldauiysp                  0096F4 RLA    
__setjmp                  009704 RLA    incsp1                    009729 RLA    
popeax                    009730 RLA    decax1                    009745 RLA    
_isupper                  00974C RLA    compleax                  009754 RLA    
tosugteax                 009769 RLA    _isascii                  00976F RLA    
_wherey                   00977A RLA    stax0sp                   009780 RLA    
staxysp                   009782 RLA    ldeax0sp                  00978B RLA    
ldeaxysp                  00978D RLA    push4                     00979E RLA    
_strxfrm                  0097A3 RLA    tosasleax                 0097C3 RLA    
tosshleax                 0097C3 RLA    osfile_callosfile         0097DD RLA    
mulax10                   0097E5 RLA    tosadd0ax                 0097FE RLA    
tosaddeax                 009804 RLA    ldeaxi                    009823 RLA    
ldeaxidx                  009825 RLA    shreax1                   00983A RLA    
asleax3                   009846 RLA    shleax3                   009846 RLA    
tosmulax                  009860 RLA    tosumulax                 009860 RLA    
__swap                    0098A5 RLA    __heapblocksize           0098D4 RLA    
_getcpu                   009900 RLA    tosrsuba0                 009975 RLA    
tosrsubax                 009977 RLA    subeq0sp                  009988 RLA    
subeqysp                  00998A RLA    tossuba0                  00999D RLA    
tossubax                  00999F RLA    asreax3                   0099B2 RLA    
_cputcxy                  0099D4 RLA    _cputc                    0099DC RLA    
putchar                   0099DF RLA    tosudiv0ax                0099E9 RLA    
tosudiveax                0099EF RLA    getlop                    0099FA RLA    
udiv32                    009A1E RLA    _wherex                   009A63 RLA    
aslax1                    009A69 RLA    shlax1                    009A69 RLA    
_umul16x16r32             009A71 RLA    _strncasecmp              009A7B RLA    
_strnicmp                 009A7B RLA    shrax2                    009AD6 RLA    
pushw                     009AE1 RLA    pushwidx                  009AE3 RLA    
pushptr1idx               009AE7 RLA    tosasreax                 009AF0 RLA    
pushl0                    009B0E RLA    push0ax                   009B11 RLA    
pusheax                   009B17 RLA    screensize                009B2F RLA    
incax6                    009B42 RLA    popsreg                   009B47 RLA    
mulax9                    009B57 RLA    push3                     009B6E RLA    
asleax4                   009B73 RLA    shleax4                   009B73 RLA    
_isgraph                  009B84 RLA    preservezp                009B92 RLA    
restorezp                 009BA2 RLA    pushw0sp                  009BB2 RLA    
pushwysp                  009BB4 RLA    printstr                  009BCE RLA    
init_stack                009BDD RLA    bnegeax                   009BE6 RLA    
incax8                    009BF7 RLA    _mul40                    009BFC RLA    
tosneeax                  009C1D RLA    subysp                    009C23 RLA    
toslcmp                   009C30 RLA    ldax0sp                   009C6B RLA    
ldaxysp                   009C6D RLA    decsp4                    009C74 RLA    
__longminstr              009C81 RLA    __hextab                  009C92 RLA    
__ctype                   009CA2 RLA    __ctypeidx                009CAD RLA    
__sys_errlist             009D2D RLA    utsdata                   009EFF RLA    
__MAIN_LAST__             009F15  LA    OSRDRM                    00FFB9 REA    
OSEVEN                    00FFBF REA    GSINIT                    00FFC2 REA    
GSREAD                    00FFC5 REA    NVWRCH                    00FFC8 REA    
NVRDCH                    00FFCB REA    OSFIND                    00FFCE REA    
OSGBPB                    00FFD1 REA    OSBPUT                    00FFD4 REA    
OSBGET                    00FFD7 REA    OSARGS                    00FFDA REA    
OSFILE                    00FFDD REA    OSRDCH                    00FFE0 REA    
OSASCI                    00FFE3 REA    _OSASCI                   00FFE3 REA    
OSNEWL                    00FFE7 REA    OSWRCH                    00FFEE REA    
_OSWRCH                   00FFEE REA    OSWORD                    00FFF1 REA    
OSBYTE                    00FFF4 REA    OSCLI                     00FFF7 REA    



Imports list:
-------------
ARGSV (os.o):
    clib_rom.o                ../build/libwrk/clib_imports.inc(202)
BGETV (os.o):
    clib_rom.o                ../build/libwrk/clib_imports.inc(206)
BPUTV (os.o):
    clib_rom.o                ../build/libwrk/clib_imports.inc(210)
BRKV (os.o):
    clib_rom.o                ../build/libwrk/clib_imports.inc(214)
BYTEV (os.o):
    clib_rom.o                ../build/libwrk/clib_imports.inc(218)
CLIV (os.o):
    clib_rom.o                ../build/libwrk/clib_imports.inc(222)
CNPV (os.o):
    clib_rom.o                ../build/libwrk/clib_imports.inc(226)
EVNTV (os.o):
    clib_rom.o                ../build/libwrk/clib_imports.inc(230)
FILEV (os.o):
    clib_rom.o                ../build/libwrk/clib_imports.inc(234)
FINDV (os.o):
    clib_rom.o                ../build/libwrk/clib_imports.inc(238)
FSCV (os.o):
    clib_rom.o                ../build/libwrk/clib_imports.inc(242)
GBPBV (os.o):
    clib_rom.o                ../build/libwrk/clib_imports.inc(246)
GSINIT (os.o):
    clib_rom.o                ../build/libwrk/clib_imports.inc(250)
GSREAD (os.o):
    clib_rom.o                ../build/libwrk/clib_imports.inc(254)
IND1V (os.o):
    clib_rom.o                ../build/libwrk/clib_imports.inc(258)
IND2V (os.o):
    clib_rom.o                ../build/libwrk/clib_imports.inc(262)
IND3V (os.o):
    clib_rom.o                ../build/libwrk/clib_imports.inc(266)
INSV (os.o):
    clib_rom.o                ../build/libwrk/clib_imports.inc(270)
IRQ1V (os.o):
    clib_rom.o                ../build/libwrk/clib_imports.inc(274)
IRQ2V (os.o):
    clib_rom.o                ../build/libwrk/clib_imports.inc(278)
KEYV (os.o):
    clib_rom.o                ../build/libwrk/clib_imports.inc(282)
NETV (os.o):
    clib_rom.o                ../build/libwrk/clib_imports.inc(286)
NVRDCH (os.o):
    clib_rom.o                ../build/libwrk/clib_imports.inc(290)
NVWRCH (os.o):
    clib_rom.o                ../build/libwrk/clib_imports.inc(294)
OSARGS (os.o):
    clib_rom.o                ../build/libwrk/clib_imports.inc(298)
OSASCI (os.o):
    printstr.o                libsrc/bbc/printstr.s(1)
    print0.o                  libsrc/bbc/print0.s(1)
    clib_rom.o                ../build/libwrk/clib_imports.inc(302)
OSBGET (os.o):
    clib_rom.o                ../build/libwrk/clib_imports.inc(306)
OSBPUT (os.o):
    clib_rom.o                ../build/libwrk/clib_imports.inc(310)
OSBYTE (os.o):
    kbhit.o                   libsrc/bbc/oslib/os.inc(5)
    clib_rom.o                ../build/libwrk/clib_imports.inc(314)
OSCLI (os.o):
    clib_rom.o                ../build/libwrk/clib_imports.inc(318)
OSEVEN (os.o):
    clib_rom.o                ../build/libwrk/clib_imports.inc(322)
OSFILE (os.o):
    osfile_callosfile.o       libsrc/bbc/oslib/osfile_callosfile.s(10)
    clib_rom.o                ../build/libwrk/clib_imports.inc(326)
OSFIND (os.o):
    clib_rom.o                ../build/libwrk/clib_imports.inc(330)
OSGBPB (os.o):
    clib_rom.o                ../build/libwrk/clib_imports.inc(334)
OSNEWL (os.o):
    cputc.o                   libsrc/bbc/oslib/os.inc(8)
    clib_rom.o                ../build/libwrk/clib_imports.inc(338)
OSRDCH (os.o):
    clib_rom.o                ../build/libwrk/clib_imports.inc(342)
OSRDRM (os.o):
    clib_rom.o                ../build/libwrk/clib_imports.inc(346)
OSWORD (os.o):
    clib_rom.o                ../build/libwrk/clib_imports.inc(350)
OSWRCH (os.o):
    cputc.o                   libsrc/bbc/oslib/os.inc(7)
    chline.o                  libsrc/bbc/oslib/os.inc(7)
    gotoy.o                   libsrc/bbc/oslib/os.inc(7)
    printhex.o                libsrc/bbc/oslib/os.inc(7)
    cclear.o                  libsrc/bbc/oslib/os.inc(7)
    gotoxy.o                  libsrc/bbc/oslib/os.inc(7)
    gotox.o                   libsrc/bbc/oslib/os.inc(7)
    clib_rom.o                ../build/libwrk/clib_imports.inc(354)
RDCHV (os.o):
    clib_rom.o                ../build/libwrk/clib_imports.inc(358)
REMV (os.o):
    clib_rom.o                ../build/libwrk/clib_imports.inc(362)
UPTV (os.o):
    clib_rom.o                ../build/libwrk/clib_imports.inc(366)
USERV (os.o):
    clib_rom.o                ../build/libwrk/clib_imports.inc(370)
VDUV (os.o):
    clib_rom.o                ../build/libwrk/clib_imports.inc(374)
VDU_WKSP (os.o):
    _scrsize.o                libsrc/bbc/oslib/os.inc(54)
    wherex.o                  libsrc/bbc/oslib/os.inc(54)
    wherey.o                  libsrc/bbc/oslib/os.inc(54)
    gotoy.o                   libsrc/bbc/oslib/os.inc(54)
    gotox.o                   libsrc/bbc/oslib/os.inc(54)
    clib_rom.o                ../build/libwrk/clib_imports.inc(378)
WORDV (os.o):
    clib_rom.o                ../build/libwrk/clib_imports.inc(382)
WRCHV (os.o):
    clib_rom.o                ../build/libwrk/clib_imports.inc(386)
_OSASCI (os.o):
    clib_rom.o                ../build/libwrk/clib_imports.inc(390)
_OSWRCH (os.o):
    clib_rom.o                ../build/libwrk/clib_imports.inc(394)
__MAIN_FILEOFFS__ ([linker generated]):
__MAIN_LAST__ ([linker generated]):
__MAIN_SIZE__ ([linker generated]):
__MAIN_START__ ([linker generated]):
__ZP_FILEOFFS__ ([linker generated]):
__ZP_LAST__ ([linker generated]):
__ZP_SIZE__ ([linker generated]):
__ZP_START__ ([linker generated]):
__bzero (memset.o):
    clib_rom.o                ../build/libwrk/clib_imports.inc(398)
__cos (sincos.o):
    clib_rom.o                ../build/libwrk/clib_imports.inc(402)
__ctype (ctype.o):
    ctypemask.o               libsrc/common/ctypemask.s(23)
    clib_rom.o                ../build/libwrk/clib_imports.inc(406)
__ctypeidx (ctype.o):
    ctypemask.o               libsrc/common/ctypemask.s(24)
    clib_rom.o                ../build/libwrk/clib_imports.inc(410)
__heapblocksize (_heapblocksize.o):
    clib_rom.o                ../build/libwrk/clib_imports.inc(414)
__hextab (_hextab.o):
    ltoa.o                    libsrc/common/ltoa.s(10)
    itoa.o                    libsrc/common/itoa.s(10)
    clib_rom.o                ../build/libwrk/clib_imports.inc(418)
__longminstr (_longminstr.o):
    ltoa.o                    libsrc/common/ltoa.s(10)
    clib_rom.o                ../build/libwrk/clib_imports.inc(422)
__osmaperrno (oserror.o):
    clib_rom.o                ../build/libwrk/clib_imports.inc(426)
__setjmp (setjmp.o):
    clib_rom.o                ../build/libwrk/clib_imports.inc(430)
__sin (sincos.o):
    clib_rom.o                ../build/libwrk/clib_imports.inc(434)
__swap (_swap.o):
    clib_rom.o                ../build/libwrk/clib_imports.inc(438)
__sys_errlist (errormsg.o):
    clib_rom.o                ../build/libwrk/clib_imports.inc(442)
__sysuname (sysuname.o):
    clib_rom.o                ../build/libwrk/clib_imports.inc(446)
_abs (negabs.o):
    clib_rom.o                ../build/libwrk/clib_imports.inc(450)
_atoi (atoi.o):
    clib_rom.o                ../build/libwrk/clib_imports.inc(454)
_atol (atoi.o):
    clib_rom.o                ../build/libwrk/clib_imports.inc(458)
_bzero (memset.o):
    clib_rom.o                ../build/libwrk/clib_imports.inc(462)
_cclear (cclear.o):
    clib_rom.o                ../build/libwrk/clib_imports.inc(466)
_cclearxy (cclear.o):
    clib_rom.o                ../build/libwrk/clib_imports.inc(470)
_chline (chline.o):
    clib_rom.o                ../build/libwrk/clib_imports.inc(474)
_chlinexy (chline.o):
    clib_rom.o                ../build/libwrk/clib_imports.inc(478)
_closedir (closedir.o):
    clib_rom.o                ../build/libwrk/clib_imports.inc(482)
_cputc (cputc.o):
    clib_rom.o                ../build/libwrk/clib_imports.inc(486)
_cputcxy (cputc.o):
    clib_rom.o                ../build/libwrk/clib_imports.inc(490)
_decompress_lz4 (lz4.o):
    clib_rom.o                ../build/libwrk/clib_imports.inc(494)
_div (divt.o):
    clib_rom.o                ../build/libwrk/clib_imports.inc(498)
_doesclrscrafterexit (doesclrscr.o):
    clib_rom.o                ../build/libwrk/clib_imports.inc(502)
_getcpu (getcpu.o):
    clib_rom.o                ../build/libwrk/clib_imports.inc(506)
_gotox (gotox.o):
    clib_rom.o                ../build/libwrk/clib_imports.inc(510)
_gotoxy (gotoxy.o):
    cputc.o                   libsrc/bbc/cputc.s(9)
    chline.o                  libsrc/bbc/chline.s(9)
    cclear.o                  libsrc/bbc/cclear.s(9)
    clib_rom.o                ../build/libwrk/clib_imports.inc(514)
_gotoy (gotoy.o):
    clib_rom.o                ../build/libwrk/clib_imports.inc(518)
_idiv32by16r16 (_idiv32by16r16.o):
    clib_rom.o                ../build/libwrk/clib_imports.inc(522)
_imaxabs (labs.o):
    clib_rom.o                ../build/libwrk/clib_imports.inc(526)
_imul16x16r32 (_imul16x16r32.o):
    clib_rom.o                ../build/libwrk/clib_imports.inc(530)
_imul8x8r16 (_imul8x8r16.o):
    clib_rom.o                ../build/libwrk/clib_imports.inc(534)
_isalnum (isalnum.o):
    clib_rom.o                ../build/libwrk/clib_imports.inc(538)
_isalpha (isalpha.o):
    clib_rom.o                ../build/libwrk/clib_imports.inc(542)
_isascii (isascii.o):
    clib_rom.o                ../build/libwrk/clib_imports.inc(546)
_isblank (isblank.o):
    clib_rom.o                ../build/libwrk/clib_imports.inc(550)
_iscntrl (iscntrl.o):
    clib_rom.o                ../build/libwrk/clib_imports.inc(554)
_isdigit (isdigit.o):
    clib_rom.o                ../build/libwrk/clib_imports.inc(558)
_isgraph (isgraph.o):
    clib_rom.o                ../build/libwrk/clib_imports.inc(562)
_islower (islower.o):
    clib_rom.o                ../build/libwrk/clib_imports.inc(566)
_isprint (isprint.o):
    clib_rom.o                ../build/libwrk/clib_imports.inc(570)
_ispunct (ispunct.o):
    clib_rom.o                ../build/libwrk/clib_imports.inc(574)
_isspace (isspace.o):
    clib_rom.o                ../build/libwrk/clib_imports.inc(578)
_isupper (isupper.o):
    clib_rom.o                ../build/libwrk/clib_imports.inc(582)
_isxdigit (isxdigit.o):
    clib_rom.o                ../build/libwrk/clib_imports.inc(586)
_itoa (itoa.o):
    clib_rom.o                ../build/libwrk/clib_imports.inc(590)
_kbhit (kbhit.o):
    clib_rom.o                ../build/libwrk/clib_imports.inc(594)
_labs (labs.o):
    clib_rom.o                ../build/libwrk/clib_imports.inc(598)
_longjmp (longjmp.o):
    clib_rom.o                ../build/libwrk/clib_imports.inc(602)
_ltoa (ltoa.o):
    clib_rom.o                ../build/libwrk/clib_imports.inc(606)
_memchr (memchr.o):
    clib_rom.o                ../build/libwrk/clib_imports.inc(610)
_memcmp (memcmp.o):
    clib_rom.o                ../build/libwrk/clib_imports.inc(614)
_memcpy (memcpy.o):
    clib_rom.o                ../build/libwrk/clib_imports.inc(618)
_memmove (memmove.o):
    clib_rom.o                ../build/libwrk/clib_imports.inc(622)
_memset (memset.o):
    clib_rom.o                ../build/libwrk/clib_imports.inc(626)
_mul20 (mul20.o):
    clib_rom.o                ../build/libwrk/clib_imports.inc(630)
_mul40 (mul40.o):
    clib_rom.o                ../build/libwrk/clib_imports.inc(634)
_os_generate_error (os_generate_error.o):
    clib_rom.o                ../build/libwrk/clib_imports.inc(638)
_strcasecmp (stricmp.o):
    clib_rom.o                ../build/libwrk/clib_imports.inc(642)
_strcat (strcat.o):
    clib_rom.o                ../build/libwrk/clib_imports.inc(646)
_strchr (strchr.o):
    clib_rom.o                ../build/libwrk/clib_imports.inc(650)
_strcmp (strcmp.o):
    strcoll.o                 libsrc/common/strcoll.s(10)
    clib_rom.o                ../build/libwrk/clib_imports.inc(654)
_strcoll (strcoll.o):
    clib_rom.o                ../build/libwrk/clib_imports.inc(658)
_strcpy (strcpy.o):
    clib_rom.o                ../build/libwrk/clib_imports.inc(662)
_strcspn (strcspn.o):
    clib_rom.o                ../build/libwrk/clib_imports.inc(666)
_stricmp (stricmp.o):
    clib_rom.o                ../build/libwrk/clib_imports.inc(670)
_strlen (strlen.o):
    strxfrm.o                 ../build/libwrk/strxfrm.s(18)
    strspn.o                  libsrc/common/strspn.s(9)
    strcspn.o                 libsrc/common/strcspn.s(9)
    clib_rom.o                ../build/libwrk/clib_imports.inc(674)
_strlower (strlower.o):
    clib_rom.o                ../build/libwrk/clib_imports.inc(678)
_strlwr (strlower.o):
    clib_rom.o                ../build/libwrk/clib_imports.inc(682)
_strncasecmp (strnicmp.o):
    clib_rom.o                ../build/libwrk/clib_imports.inc(686)
_strncat (strncat.o):
    clib_rom.o                ../build/libwrk/clib_imports.inc(690)
_strncmp (strncmp.o):
    clib_rom.o                ../build/libwrk/clib_imports.inc(694)
_strncpy (strncpy.o):
    strxfrm.o                 ../build/libwrk/strxfrm.s(19)
    clib_rom.o                ../build/libwrk/clib_imports.inc(698)
_strnicmp (strnicmp.o):
    clib_rom.o                ../build/libwrk/clib_imports.inc(702)
_strpbrk (strpbrk.o):
    clib_rom.o                ../build/libwrk/clib_imports.inc(706)
_strrchr (strrchr.o):
    clib_rom.o                ../build/libwrk/clib_imports.inc(710)
_strspn (strspn.o):
    clib_rom.o                ../build/libwrk/clib_imports.inc(714)
_strstr (strstr.o):
    clib_rom.o                ../build/libwrk/clib_imports.inc(718)
_strupper (strupper.o):
    clib_rom.o                ../build/libwrk/clib_imports.inc(722)
_strupr (strupper.o):
    clib_rom.o                ../build/libwrk/clib_imports.inc(726)
_strxfrm (strxfrm.o):
    clib_rom.o                ../build/libwrk/clib_imports.inc(730)
_system (system.o):
    clib_rom.o                ../build/libwrk/clib_imports.inc(734)
_toascii (toascii.o):
    clib_rom.o                ../build/libwrk/clib_imports.inc(738)
_tolower (tolower.o):
    clib_rom.o                ../build/libwrk/clib_imports.inc(742)
_toupper (toupper.o):
    clib_rom.o                ../build/libwrk/clib_imports.inc(746)
_udiv32by16r16 (_udiv32by16r16.o):
    clib_rom.o                ../build/libwrk/clib_imports.inc(750)
_ultoa (ltoa.o):
    clib_rom.o                ../build/libwrk/clib_imports.inc(754)
_umul16x16r32 (_umul16x16r32.o):
    clib_rom.o                ../build/libwrk/clib_imports.inc(758)
_umul16x8r32 (_umul16x8r32.o):
    clib_rom.o                ../build/libwrk/clib_imports.inc(762)
_umul8x8r16 (_umul8x8r16.o):
    clib_rom.o                ../build/libwrk/clib_imports.inc(766)
_utoa (itoa.o):
    clib_rom.o                ../build/libwrk/clib_imports.inc(770)
_wherex (wherex.o):
    clib_rom.o                ../build/libwrk/clib_imports.inc(774)
_wherey (wherey.o):
    clib_rom.o                ../build/libwrk/clib_imports.inc(778)
_xos_generate_error (os_generate_error.o):
    clib_rom.o                ../build/libwrk/clib_imports.inc(782)
addeq0sp (addeqsp.o):
    clib_rom.o                ../build/libwrk/clib_imports.inc(786)
addeqysp (addeqsp.o):
    clib_rom.o                ../build/libwrk/clib_imports.inc(790)
addysp (addysp.o):
    preservezp.o              libsrc/bbc/preservezp.s(3)
    incsp4.o                  libsrc/runtime/incsp4.s(8)
    leave.o                   libsrc/runtime/leave.s(14)
    incsp7.o                  libsrc/runtime/incsp7.s(8)
    incsp5.o                  libsrc/runtime/incsp5.s(8)
    incsp6.o                  libsrc/runtime/incsp6.s(8)
    osfile_ret_read_delete_load.o libsrc/bbc/oslib/osfile_ret_read_delete_load.s(19)
    incsp8.o                  libsrc/runtime/incsp8.s(8)
    incsp3.o                  libsrc/runtime/incsp3.s(8)
    clib_rom.o                ../build/libwrk/clib_imports.inc(794)
addysp1 (addysp.o):
    ludiv.o                   libsrc/runtime/ludiv.s(9)
    sub.o                     libsrc/runtime/sub.s(8)
    rsub.o                    libsrc/runtime/rsub.s(9)
    ladd.o                    libsrc/runtime/ladd.s(8)
    lmul.o                    libsrc/runtime/lmul.s(9)
    land.o                    libsrc/runtime/land.s(9)
    and.o                     libsrc/runtime/and.s(8)
    lxor.o                    libsrc/runtime/lxor.s(9)
    lor.o                     libsrc/runtime/lor.s(9)
    lsub.o                    libsrc/runtime/lsub.s(11)
    itoa.o                    libsrc/common/itoa.s(9)
    or.o                      libsrc/runtime/or.s(9)
    xor.o                     libsrc/runtime/xor.s(9)
    lrsub.o                   libsrc/runtime/lrsub.s(12)
    clib_rom.o                ../build/libwrk/clib_imports.inc(798)
along (along.o):
    clib_rom.o                ../build/libwrk/clib_imports.inc(802)
aslax1 (aslax1.o):
    clib_rom.o                ../build/libwrk/clib_imports.inc(806)
aslax2 (aslax2.o):
    clib_rom.o                ../build/libwrk/clib_imports.inc(810)
aslax3 (aslax3.o):
    clib_rom.o                ../build/libwrk/clib_imports.inc(814)
aslax4 (aslax4.o):
    clib_rom.o                ../build/libwrk/clib_imports.inc(818)
aslaxy (shl.o):
    clib_rom.o                ../build/libwrk/clib_imports.inc(822)
asleax1 (asleax1.o):
    clib_rom.o                ../build/libwrk/clib_imports.inc(826)
asleax2 (asleax2.o):
    clib_rom.o                ../build/libwrk/clib_imports.inc(830)
asleax3 (asleax3.o):
    clib_rom.o                ../build/libwrk/clib_imports.inc(834)
asleax4 (asleax4.o):
    clib_rom.o                ../build/libwrk/clib_imports.inc(838)
asrax1 (asrax1.o):
    clib_rom.o                ../build/libwrk/clib_imports.inc(842)
asrax2 (asrax2.o):
    clib_rom.o                ../build/libwrk/clib_imports.inc(846)
asrax3 (asrax3.o):
    clib_rom.o                ../build/libwrk/clib_imports.inc(850)
asrax4 (asrax4.o):
    clib_rom.o                ../build/libwrk/clib_imports.inc(854)
asraxy (asr.o):
    clib_rom.o                ../build/libwrk/clib_imports.inc(858)
asreax1 (asreax1.o):
    clib_rom.o                ../build/libwrk/clib_imports.inc(862)
asreax2 (asreax2.o):
    clib_rom.o                ../build/libwrk/clib_imports.inc(866)
asreax3 (asreax3.o):
    clib_rom.o                ../build/libwrk/clib_imports.inc(870)
asreax4 (asreax4.o):
    clib_rom.o                ../build/libwrk/clib_imports.inc(874)
aulong (along.o):
    clib_rom.o                ../build/libwrk/clib_imports.inc(878)
axlong (axlong.o):
    clib_rom.o                ../build/libwrk/clib_imports.inc(882)
axulong (axlong.o):
    clib_rom.o                ../build/libwrk/clib_imports.inc(886)
bcasta (bcast.o):
    clib_rom.o                ../build/libwrk/clib_imports.inc(890)
bcastax (bcast.o):
    clib_rom.o                ../build/libwrk/clib_imports.inc(894)
bcasteax (lbcast.o):
    clib_rom.o                ../build/libwrk/clib_imports.inc(898)
bnega (bneg.o):
    clib_rom.o                ../build/libwrk/clib_imports.inc(902)
bnegax (bneg.o):
    clib_rom.o                ../build/libwrk/clib_imports.inc(906)
bnegeax (lbneg.o):
    clib_rom.o                ../build/libwrk/clib_imports.inc(910)
booleq (makebool.o):
    eq.o                      libsrc/runtime/eq.s(8)
    leq.o                     libsrc/runtime/leq.s(8)
    clib_rom.o                ../build/libwrk/clib_imports.inc(914)
boolge (makebool.o):
    lge.o                     libsrc/runtime/lge.s(8)
    ge.o                      libsrc/runtime/ge.s(8)
    clib_rom.o                ../build/libwrk/clib_imports.inc(918)
boolgt (makebool.o):
    gt.o                      libsrc/runtime/gt.s(8)
    lgt.o                     libsrc/runtime/lgt.s(8)
    clib_rom.o                ../build/libwrk/clib_imports.inc(922)
boolle (makebool.o):
    lle.o                     libsrc/runtime/lle.s(8)
    le.o                      libsrc/runtime/le.s(8)
    clib_rom.o                ../build/libwrk/clib_imports.inc(926)
boollt (makebool.o):
    lt.o                      libsrc/runtime/lt.s(8)
    llt.o                     libsrc/runtime/llt.s(8)
    clib_rom.o                ../build/libwrk/clib_imports.inc(930)
boolne (makebool.o):
    lne.o                     libsrc/runtime/lne.s(8)
    ne.o                      libsrc/runtime/ne.s(8)
    clib_rom.o                ../build/libwrk/clib_imports.inc(934)
booluge (makebool.o):
    uge.o                     libsrc/runtime/uge.s(8)
    luge.o                    libsrc/runtime/luge.s(8)
    clib_rom.o                ../build/libwrk/clib_imports.inc(938)
boolugt (makebool.o):
    lugt.o                    libsrc/runtime/lugt.s(8)
    ugt.o                     libsrc/runtime/ugt.s(8)
    clib_rom.o                ../build/libwrk/clib_imports.inc(942)
boolule (makebool.o):
    lule.o                    libsrc/runtime/lule.s(8)
    ule.o                     libsrc/runtime/ule.s(8)
    clib_rom.o                ../build/libwrk/clib_imports.inc(946)
boolult (makebool.o):
    lult.o                    libsrc/runtime/lult.s(8)
    ult.o                     libsrc/runtime/ult.s(8)
    clib_rom.o                ../build/libwrk/clib_imports.inc(950)
bpushbsp (bpushbsp.o):
    clib_rom.o                ../build/libwrk/clib_imports.inc(954)
bpushbysp (bpushbsp.o):
    clib_rom.o                ../build/libwrk/clib_imports.inc(958)
callax (call.o):
    clib_rom.o                ../build/libwrk/clib_imports.inc(962)
callptr4 (callptr4.o):
    clib_rom.o                ../build/libwrk/clib_imports.inc(966)
complax (compl.o):
    clib_rom.o                ../build/libwrk/clib_imports.inc(970)
compleax (lcompl.o):
    clib_rom.o                ../build/libwrk/clib_imports.inc(974)
ctypemask (ctypemask.o):
    isgraph.o                 libsrc/common/isgraph.s(15)
    isupper.o                 libsrc/common/isupper.s(15)
    isxdigit.o                libsrc/common/isxdigit.s(15)
    isalpha.o                 libsrc/common/isalpha.s(15)
    isblank.o                 libsrc/common/isblank.s(17)
    isdigit.o                 libsrc/common/isdigit.s(15)
    islower.o                 libsrc/common/islower.s(15)
    isprint.o                 libsrc/common/isprint.s(15)
    ispunct.o                 libsrc/common/ispunct.s(15)
    isalnum.o                 libsrc/common/isalnum.s(15)
    isspace.o                 libsrc/common/isspace.s(15)
    iscntrl.o                 libsrc/common/iscntrl.s(15)
    clib_rom.o                ../build/libwrk/clib_imports.inc(978)
ctypemaskdirect (ctypemask.o):
    strnicmp.o                libsrc/common/strnicmp.s(12)
    atoi.o                    libsrc/common/atoi.s(11)
    toupper.o                 libsrc/common/toupper.s(15)
    strupper.o                libsrc/common/strupper.s(14)
    strlower.o                libsrc/common/strlower.s(14)
    stricmp.o                 libsrc/common/stricmp.s(17)
    tolower.o                 libsrc/common/tolower.s(15)
    clib_rom.o                ../build/libwrk/clib_imports.inc(982)
decax1 (decax1.o):
    clib_rom.o                ../build/libwrk/clib_imports.inc(986)
decax2 (decax2.o):
    clib_rom.o                ../build/libwrk/clib_imports.inc(990)
decax3 (decax3.o):
    clib_rom.o                ../build/libwrk/clib_imports.inc(994)
decax4 (decax4.o):
    clib_rom.o                ../build/libwrk/clib_imports.inc(998)
decax5 (decax5.o):
    clib_rom.o                ../build/libwrk/clib_imports.inc(1002)
decax6 (decax6.o):
    clib_rom.o                ../build/libwrk/clib_imports.inc(1006)
decax7 (decax7.o):
    clib_rom.o                ../build/libwrk/clib_imports.inc(1010)
decax8 (decax8.o):
    clib_rom.o                ../build/libwrk/clib_imports.inc(1014)
decaxy (decaxy.o):
    clib_rom.o                ../build/libwrk/clib_imports.inc(1018)
deceaxy (ldec.o):
    clib_rom.o                ../build/libwrk/clib_imports.inc(1022)
decsp1 (decsp1.o):
    clib_rom.o                ../build/libwrk/clib_imports.inc(1026)
decsp2 (decsp2.o):
    toslong.o                 libsrc/runtime/toslong.s(8)
    clib_rom.o                ../build/libwrk/clib_imports.inc(1030)
decsp3 (decsp3.o):
    clib_rom.o                ../build/libwrk/clib_imports.inc(1034)
decsp4 (decsp4.o):
    lpush.o                   libsrc/runtime/lpush.s(12)
    clib_rom.o                ../build/libwrk/clib_imports.inc(1038)
decsp5 (decsp5.o):
    clib_rom.o                ../build/libwrk/clib_imports.inc(1042)
decsp6 (decsp6.o):
    clib_rom.o                ../build/libwrk/clib_imports.inc(1046)
decsp7 (decsp7.o):
    clib_rom.o                ../build/libwrk/clib_imports.inc(1050)
decsp8 (decsp8.o):
    clib_rom.o                ../build/libwrk/clib_imports.inc(1054)
enter (enter.o):
    clib_rom.o                ../build/libwrk/clib_imports.inc(1058)
getlop (ludiv.o):
    lumod.o                   libsrc/runtime/lumod.s(9)
    lshelp.o                  libsrc/runtime/lshelp.s(11)
    clib_rom.o                ../build/libwrk/clib_imports.inc(1062)
idiv32by16r16 (idiv32by16r16.o):
    _idiv32by16r16.o          libsrc/common/_idiv32by16r16.s(8)
    clib_rom.o                ../build/libwrk/clib_imports.inc(1066)
imul16x16r32 (imul16x16r32.o):
    _imul16x16r32.o           libsrc/common/_imul16x16r32.s(8)
    clib_rom.o                ../build/libwrk/clib_imports.inc(1070)
imul8x8r16 (imul8x8r16.o):
    _imul8x8r16.o             libsrc/common/_imul8x8r16.s(9)
    clib_rom.o                ../build/libwrk/clib_imports.inc(1074)
imul8x8r16m (imul8x8r16.o):
    clib_rom.o                ../build/libwrk/clib_imports.inc(1078)
incax1 (incax1.o):
    clib_rom.o                ../build/libwrk/clib_imports.inc(1082)
incax2 (incax2.o):
    clib_rom.o                ../build/libwrk/clib_imports.inc(1086)
incax3 (incax3.o):
    clib_rom.o                ../build/libwrk/clib_imports.inc(1090)
incax4 (incaxy.o):
    clib_rom.o                ../build/libwrk/clib_imports.inc(1094)
incax5 (incax5.o):
    clib_rom.o                ../build/libwrk/clib_imports.inc(1098)
incax6 (incax6.o):
    clib_rom.o                ../build/libwrk/clib_imports.inc(1102)
incax7 (incax7.o):
    clib_rom.o                ../build/libwrk/clib_imports.inc(1106)
incax8 (incax8.o):
    clib_rom.o                ../build/libwrk/clib_imports.inc(1110)
incaxy (incaxy.o):
    incax8.o                  libsrc/runtime/incax8.s(8)
    incax6.o                  libsrc/runtime/incax6.s(8)
    incax3.o                  libsrc/runtime/incax3.s(8)
    incax7.o                  libsrc/runtime/incax7.s(8)
    incax5.o                  libsrc/runtime/incax5.s(8)
    clib_rom.o                ../build/libwrk/clib_imports.inc(1114)
inceaxy (linc.o):
    clib_rom.o                ../build/libwrk/clib_imports.inc(1118)
incsp1 (incsp1.o):
    clib_rom.o                ../build/libwrk/clib_imports.inc(1122)
incsp2 (incsp2.o):
    popsreg.o                 libsrc/runtime/popsreg.s(8)
    tosint.o                  libsrc/runtime/tosint.s(8)
    closedir.o                ../build/libwrk/closedir.s(64)
    staxspi.o                 libsrc/runtime/staxspi.s(9)
    system.o                  ../build/libwrk/system.s(67)
    popptr1.o                 libsrc/runtime/popptr1.s(8)
    staspidx.o                libsrc/runtime/staspidx.s(8)
    clib_rom.o                ../build/libwrk/clib_imports.inc(1126)
incsp3 (incsp3.o):
    clib_rom.o                ../build/libwrk/clib_imports.inc(1130)
incsp4 (incsp4.o):
    lcmp.o                    libsrc/runtime/lcmp.s(9)
    lpop.o                    libsrc/runtime/lpop.s(9)
    clib_rom.o                ../build/libwrk/clib_imports.inc(1134)
incsp5 (incsp5.o):
    clib_rom.o                ../build/libwrk/clib_imports.inc(1138)
incsp6 (incsp6.o):
    strxfrm.o                 ../build/libwrk/strxfrm.s(68)
    clib_rom.o                ../build/libwrk/clib_imports.inc(1142)
incsp7 (incsp7.o):
    clib_rom.o                ../build/libwrk/clib_imports.inc(1146)
incsp8 (incsp8.o):
    clib_rom.o                ../build/libwrk/clib_imports.inc(1150)
init_stack (init_stack.o):
    clib_rom.o                ../build/libwrk/clib_imports.inc(1154)
laddeq (laddeq.o):
    clib_rom.o                ../build/libwrk/clib_imports.inc(1158)
laddeq0sp (laddeqsp.o):
    clib_rom.o                ../build/libwrk/clib_imports.inc(1162)
laddeq1 (laddeq.o):
    clib_rom.o                ../build/libwrk/clib_imports.inc(1166)
laddeqa (laddeq.o):
    clib_rom.o                ../build/libwrk/clib_imports.inc(1170)
laddeqysp (laddeqsp.o):
    clib_rom.o                ../build/libwrk/clib_imports.inc(1174)
ldaidx (ldai.o):
    clib_rom.o                ../build/libwrk/clib_imports.inc(1178)
ldau00sp (ldau0sp.o):
    clib_rom.o                ../build/libwrk/clib_imports.inc(1182)
ldau0ysp (ldau0sp.o):
    clib_rom.o                ../build/libwrk/clib_imports.inc(1186)
ldaui0sp (ldauisp.o):
    clib_rom.o                ../build/libwrk/clib_imports.inc(1190)
ldauidx (ldaui.o):
    clib_rom.o                ../build/libwrk/clib_imports.inc(1194)
ldauiysp (ldauisp.o):
    clib_rom.o                ../build/libwrk/clib_imports.inc(1198)
ldax0sp (ldaxsp.o):
    closedir.o                ../build/libwrk/closedir.s(64)
    clib_rom.o                ../build/libwrk/clib_imports.inc(1202)
ldaxi (ldaxi.o):
    clib_rom.o                ../build/libwrk/clib_imports.inc(1206)
ldaxidx (ldaxi.o):
    clib_rom.o                ../build/libwrk/clib_imports.inc(1210)
ldaxysp (ldaxsp.o):
    strxfrm.o                 ../build/libwrk/strxfrm.s(68)
    osfile_ret_read_delete_load.o libsrc/bbc/oslib/osfile_ret_read_delete_load.s(20)
    clib_rom.o                ../build/libwrk/clib_imports.inc(1214)
ldeax0sp (ldeaxysp.o):
    clib_rom.o                ../build/libwrk/clib_imports.inc(1218)
ldeaxi (ldeaxi.o):
    clib_rom.o                ../build/libwrk/clib_imports.inc(1222)
ldeaxidx (ldeaxi.o):
    clib_rom.o                ../build/libwrk/clib_imports.inc(1226)
ldeaxysp (ldeaxysp.o):
    clib_rom.o                ../build/libwrk/clib_imports.inc(1230)
leaa0sp (leaaxsp.o):
    clib_rom.o                ../build/libwrk/clib_imports.inc(1234)
leaaxsp (leaaxsp.o):
    clib_rom.o                ../build/libwrk/clib_imports.inc(1238)
leave (leave.o):
    clib_rom.o                ../build/libwrk/clib_imports.inc(1242)
leave0 (leave.o):
    clib_rom.o                ../build/libwrk/clib_imports.inc(1246)
leave00 (leave.o):
    clib_rom.o                ../build/libwrk/clib_imports.inc(1250)
leavey (leave.o):
    clib_rom.o                ../build/libwrk/clib_imports.inc(1254)
leavey0 (leave.o):
    clib_rom.o                ../build/libwrk/clib_imports.inc(1258)
leavey00 (leave.o):
    clib_rom.o                ../build/libwrk/clib_imports.inc(1262)
lsubeq (lsubeq.o):
    clib_rom.o                ../build/libwrk/clib_imports.inc(1266)
lsubeq0sp (lsubeqsp.o):
    clib_rom.o                ../build/libwrk/clib_imports.inc(1270)
lsubeq1 (lsubeq.o):
    clib_rom.o                ../build/libwrk/clib_imports.inc(1274)
lsubeqa (lsubeq.o):
    clib_rom.o                ../build/libwrk/clib_imports.inc(1278)
lsubeqysp (lsubeqsp.o):
    clib_rom.o                ../build/libwrk/clib_imports.inc(1282)
memcpy_getparams (memcpy.o):
    memmove.o                 libsrc/common/memmove.s(12)
    clib_rom.o                ../build/libwrk/clib_imports.inc(1286)
memcpy_upwards (memcpy.o):
    lz4.o                     libsrc/common/lz4.s(13)
    memmove.o                 libsrc/common/memmove.s(12)
    clib_rom.o                ../build/libwrk/clib_imports.inc(1290)
mul8x16 (mul8.o):
    mul.o                     libsrc/runtime/mul.s(8)
    clib_rom.o                ../build/libwrk/clib_imports.inc(1294)
mul8x16a (mul8.o):
    mul.o                     libsrc/runtime/mul.s(8)
    clib_rom.o                ../build/libwrk/clib_imports.inc(1298)
mulax10 (mulax10.o):
    clib_rom.o                ../build/libwrk/clib_imports.inc(1302)
mulax3 (mulax3.o):
    clib_rom.o                ../build/libwrk/clib_imports.inc(1306)
mulax5 (mulax5.o):
    clib_rom.o                ../build/libwrk/clib_imports.inc(1310)
mulax6 (mulax6.o):
    clib_rom.o                ../build/libwrk/clib_imports.inc(1314)
mulax7 (mulax7.o):
    clib_rom.o                ../build/libwrk/clib_imports.inc(1318)
mulax9 (mulax9.o):
    clib_rom.o                ../build/libwrk/clib_imports.inc(1322)
negax (negabs.o):
    div.o                     libsrc/runtime/div.s(11)
    divt.o                    libsrc/common/divt.s(17)
    idiv32by16r16.o           libsrc/runtime/idiv32by16r16.s(8)
    mod.o                     libsrc/runtime/mod.s(11)
    shelp.o                   libsrc/runtime/shelp.s(11)
    imul16x16r32.o            libsrc/runtime/imul16x16r32.s(8)
    clib_rom.o                ../build/libwrk/clib_imports.inc(1326)
negeax (lneg.o):
    ldiv.o                    libsrc/runtime/ldiv.s(11)
    atoi.o                    libsrc/common/atoi.s(9)
    labs.o                    libsrc/common/labs.s(9)
    lmod.o                    libsrc/runtime/lmod.s(11)
    ltoa.o                    libsrc/common/ltoa.s(9)
    imul16x16r32.o            libsrc/runtime/imul16x16r32.s(8)
    clib_rom.o                ../build/libwrk/clib_imports.inc(1330)
osfile_alloc_block (osfile_alloc_block.o):
    clib_rom.o                ../build/libwrk/clib_imports.inc(1334)
osfile_callosfile (osfile_callosfile.o):
    clib_rom.o                ../build/libwrk/clib_imports.inc(1338)
osfile_retA (osfile_retdword.o):
    osfile_ret_read_delete_load.o libsrc/bbc/oslib/osfile_ret_read_delete_load.s(18)
    clib_rom.o                ../build/libwrk/clib_imports.inc(1342)
osfile_ret_read_delete_load (osfile_ret_read_delete_load.o):
    clib_rom.o                ../build/libwrk/clib_imports.inc(1346)
osfile_retdword (osfile_retdword.o):
    osfile_ret_read_delete_load.o libsrc/bbc/oslib/osfile_ret_read_delete_load.s(17)
    clib_rom.o                ../build/libwrk/clib_imports.inc(1350)
osfile_store_attr (osfile_store_attr.o):
    clib_rom.o                ../build/libwrk/clib_imports.inc(1354)
osfile_store_exec (osfile_store_exec.o):
    clib_rom.o                ../build/libwrk/clib_imports.inc(1358)
osfile_store_len (osfile_store_len.o):
    clib_rom.o                ../build/libwrk/clib_imports.inc(1362)
osfile_store_load (osfile_store_load.o):
    clib_rom.o                ../build/libwrk/clib_imports.inc(1366)
popa (popa.o):
    cputc.o                   libsrc/bbc/cputc.s(9)
    chline.o                  libsrc/bbc/chline.s(9)
    _umul8x8r16.o             libsrc/common/_umul8x8r16.s(8)
    cclear.o                  libsrc/bbc/cclear.s(9)
    gotoxy.o                  libsrc/bbc/gotoxy.s(10)
    _imul8x8r16.o             libsrc/common/_imul8x8r16.s(9)
    clib_rom.o                ../build/libwrk/clib_imports.inc(1370)
popax (incsp2.o):
    strnicmp.o                libsrc/common/strnicmp.s(10)
    _umul16x16r32.o           libsrc/common/_umul16x16r32.s(8)
    _swap.o                   libsrc/common/_swap.s(8)
    strpbrk.o                 libsrc/common/strpbrk.s(10)
    lz4.o                     libsrc/common/lz4.s(13)
    memmove.o                 libsrc/common/memmove.s(12)
    memcmp.o                  libsrc/common/memcmp.s(8)
    strrchr.o                 libsrc/common/strrchr.s(9)
    _imul16x16r32.o           libsrc/common/_imul16x16r32.s(8)
    memchr.o                  libsrc/common/memchr.s(8)
    strncat.o                 libsrc/common/strncat.s(9)
    strcpy.o                  libsrc/common/strcpy.s(8)
    memset.o                  libsrc/common/memset.s(19)
    shl.o                     libsrc/runtime/shl.s(15)
    rwcommon.o                libsrc/bbc/rwcommon.s(11)
    ltoa.o                    libsrc/common/ltoa.s(9)
    os_generate_error.o       libsrc/bbc/oslib/os_generate_error.s(14)
    strncpy.o                 libsrc/common/strncpy.s(8)
    strncmp.o                 libsrc/common/strncmp.s(8)
    strcat.o                  libsrc/common/strcat.s(9)
    memcpy.o                  libsrc/common/memcpy.s(14)
    _umul16x8r32.o            libsrc/common/_umul16x8r32.s(8)
    asr.o                     libsrc/runtime/asr.s(15)
    shelp.o                   libsrc/runtime/shelp.s(11)
    strchr.o                  libsrc/common/strchr.s(9)
    shr.o                     libsrc/runtime/shr.s(15)
    clib_rom.o                ../build/libwrk/clib_imports.inc(1374)
popeax (lpop.o):
    lasr.o                    libsrc/runtime/lasr.s(15)
    lshl.o                    libsrc/runtime/lshl.s(15)
    lshr.o                    libsrc/runtime/lshr.s(15)
    clib_rom.o                ../build/libwrk/clib_imports.inc(1378)
poplsargs (lshelp.o):
    ldiv.o                    libsrc/runtime/ldiv.s(11)
    lmod.o                    libsrc/runtime/lmod.s(11)
    clib_rom.o                ../build/libwrk/clib_imports.inc(1382)
popptr1 (popptr1.o):
    strnicmp.o                libsrc/common/strnicmp.s(10)
    _swap.o                   libsrc/common/_swap.s(8)
    mul.o                     libsrc/runtime/mul.s(9)
    strspn.o                  libsrc/common/strspn.s(9)
    memcmp.o                  libsrc/common/memcmp.s(8)
    memchr.o                  libsrc/common/memchr.s(8)
    strncat.o                 libsrc/common/strncat.s(9)
    longjmp.o                 libsrc/common/longjmp.s(9)
    ltoa.o                    libsrc/common/ltoa.s(9)
    udiv.o                    libsrc/runtime/udiv.s(9)
    strcmp.o                  libsrc/common/strcmp.s(8)
    umod.o                    libsrc/runtime/umod.s(8)
    strncpy.o                 libsrc/common/strncpy.s(8)
    strncmp.o                 libsrc/common/strncmp.s(8)
    steaxspi.o                libsrc/runtime/steaxspi.s(9)
    memcpy.o                  libsrc/common/memcpy.s(14)
    stricmp.o                 libsrc/common/stricmp.s(15)
    strstr.o                  libsrc/common/strstr.s(8)
    mul8.o                    libsrc/runtime/mul8.s(9)
    strcspn.o                 libsrc/common/strcspn.s(9)
    clib_rom.o                ../build/libwrk/clib_imports.inc(1386)
popsargsudiv16 (shelp.o):
    div.o                     libsrc/runtime/div.s(11)
    mod.o                     libsrc/runtime/mod.s(11)
    clib_rom.o                ../build/libwrk/clib_imports.inc(1390)
popsreg (popsreg.o):
    clib_rom.o                ../build/libwrk/clib_imports.inc(1394)
preservezp (preservezp.o):
    clib_rom.o                ../build/libwrk/clib_imports.inc(1398)
print0 (print0.o):
    clib_rom.o                ../build/libwrk/clib_imports.inc(1402)
printhex (printhex.o):
    clib_rom.o                ../build/libwrk/clib_imports.inc(1406)
printstr (printstr.o):
    clib_rom.o                ../build/libwrk/clib_imports.inc(1410)
ptr1 (zeropage.o):
    lcmp.o                    libsrc/runtime/lcmp.s(10)
    mulax9.o                  libsrc/runtime/mulax9.s(10)
    pushw.o                   libsrc/runtime/pushw.s(9)
    strnicmp.o                libsrc/common/strnicmp.s(11)
    _umul16x16r32.o           /mnt/c/Users/Dominic/Documents/GitHub/cc65/asminc/zeropage.inc(12)
    ludiv.o                   libsrc/runtime/ludiv.s(10)
    _heapblocksize.o          libsrc/common/_heapblocksize.s(9)
    _swap.o                   libsrc/common/_swap.s(9)
    mul.o                     libsrc/runtime/mul.s(10)
    ldeaxi.o                  libsrc/runtime/ldeaxi.s(8)
    mulax10.o                 libsrc/runtime/mulax10.s(9)
    setjmp.o                  libsrc/common/setjmp.s(11)
    ldauisp.o                 libsrc/runtime/ldauisp.s(8)
    div.o                     libsrc/runtime/div.s(12)
    lmul.o                    libsrc/runtime/lmul.s(10)
    strpbrk.o                 libsrc/common/strpbrk.s(11)
    call.o                    libsrc/runtime/call.s(8)
    umul8x16r24.o             /mnt/c/Users/Dominic/Documents/GitHub/cc65/asminc/zeropage.inc(12)
    strspn.o                  libsrc/common/strspn.s(10)
    lz4.o                     libsrc/common/lz4.s(11)
    ldiv.o                    libsrc/runtime/ldiv.s(12)
    atoi.o                    libsrc/common/atoi.s(10)
    memmove.o                 libsrc/common/memmove.s(13)
    memcmp.o                  libsrc/common/memcmp.s(9)
    lsubeq.o                  libsrc/runtime/lsubeq.s(12)
    strrchr.o                 libsrc/common/strrchr.s(10)
    _imul16x16r32.o           /mnt/c/Users/Dominic/Documents/GitHub/cc65/asminc/zeropage.inc(12)
    osfile_retdword.o         libsrc/bbc/oslib/osfile_retdword.s(20)
    memchr.o                  libsrc/common/memchr.s(9)
    strncat.o                 libsrc/common/strncat.s(10)
    imul8x8r16.o              libsrc/runtime/imul8x8r16.s(10)
    mulax3.o                  libsrc/runtime/mulax3.s(9)
    strcpy.o                  libsrc/common/strcpy.s(9)
    mulax6.o                  libsrc/runtime/mulax6.s(9)
    strupper.o                libsrc/common/strupper.s(13)
    memset.o                  libsrc/common/memset.s(20)
    umul16x16r32.o            /mnt/c/Users/Dominic/Documents/GitHub/cc65/asminc/zeropage.inc(12)
    rwcommon.o                libsrc/bbc/rwcommon.s(12)
    longjmp.o                 libsrc/common/longjmp.s(10)
    ltoa.o                    libsrc/common/ltoa.s(11)
    ldai.o                    libsrc/runtime/ldai.s(8)
    mulax5.o                  libsrc/runtime/mulax5.s(9)
    lshelp.o                  libsrc/runtime/lshelp.s(12)
    closedir.o                ../build/libwrk/closedir.s(11)
    udiv.o                    libsrc/runtime/udiv.s(10)
    strcmp.o                  libsrc/common/strcmp.s(9)
    idiv32by16r16.o           /mnt/c/Users/Dominic/Documents/GitHub/cc65/asminc/zeropage.inc(12)
    os_generate_error.o       libsrc/bbc/oslib/os_generate_error.s(15)
    strlower.o                libsrc/common/strlower.s(13)
    laddeq.o                  libsrc/runtime/laddeq.s(12)
    staxspi.o                 libsrc/runtime/staxspi.s(10)
    strncpy.o                 libsrc/common/strncpy.s(9)
    strncmp.o                 libsrc/common/strncmp.s(9)
    ldaui.o                   libsrc/runtime/ldaui.s(8)
    ldaxi.o                   libsrc/runtime/ldaxi.s(8)
    strcat.o                  libsrc/common/strcat.s(10)
    steaxspi.o                libsrc/runtime/steaxspi.s(10)
    memcpy.o                  libsrc/common/memcpy.s(15)
    _umul16x8r32.o            /mnt/c/Users/Dominic/Documents/GitHub/cc65/asminc/zeropage.inc(12)
    mulax7.o                  libsrc/runtime/mulax7.s(10)
    _umul8x8r16.o             libsrc/common/_umul8x8r16.s(8)
    shelp.o                   libsrc/runtime/shelp.s(12)
    imul16x16r32.o            /mnt/c/Users/Dominic/Documents/GitHub/cc65/asminc/zeropage.inc(12)
    stricmp.o                 libsrc/common/stricmp.s(16)
    pushb.o                   libsrc/runtime/pushb.s(9)
    _idiv32by16r16.o          /mnt/c/Users/Dominic/Documents/GitHub/cc65/asminc/zeropage.inc(12)
    udiv32by16r16.o           /mnt/c/Users/Dominic/Documents/GitHub/cc65/asminc/zeropage.inc(12)
    popptr1.o                 libsrc/runtime/popptr1.s(9)
    strstr.o                  libsrc/common/strstr.s(9)
    ldau0sp.o                 libsrc/runtime/ldau0sp.s(8)
    utscopy.o                 libsrc/common/utscopy.s(16)
    umul8x8r16.o              libsrc/runtime/umul8x8r16.s(8)
    mul8.o                    libsrc/runtime/mul8.s(10)
    strcspn.o                 libsrc/common/strcspn.s(10)
    _imul8x8r16.o             libsrc/common/_imul8x8r16.s(9)
    _udiv32by16r16.o          /mnt/c/Users/Dominic/Documents/GitHub/cc65/asminc/zeropage.inc(12)
    strchr.o                  libsrc/common/strchr.s(10)
    staspidx.o                libsrc/runtime/staspidx.s(9)
ptr2 (zeropage.o):
    strnicmp.o                libsrc/common/strnicmp.s(11)
    ludiv.o                   libsrc/runtime/ludiv.s(10)
    _heapblocksize.o          libsrc/common/_heapblocksize.s(9)
    _swap.o                   libsrc/common/_swap.s(9)
    strpbrk.o                 libsrc/common/strpbrk.s(11)
    strspn.o                  libsrc/common/strspn.s(10)
    lz4.o                     libsrc/common/lz4.s(11)
    atoi.o                    libsrc/common/atoi.s(10)
    memmove.o                 libsrc/common/memmove.s(13)
    memcmp.o                  libsrc/common/memcmp.s(9)
    osfile_retdword.o         libsrc/bbc/oslib/osfile_retdword.s(20)
    memchr.o                  libsrc/common/memchr.s(9)
    strncat.o                 libsrc/common/strncat.s(10)
    strlen.o                  libsrc/common/strlen.s(12)
    strcpy.o                  libsrc/common/strcpy.s(9)
    strupper.o                libsrc/common/strupper.s(13)
    memset.o                  libsrc/common/memset.s(20)
    lumod.o                   libsrc/runtime/lumod.s(10)
    rwcommon.o                libsrc/bbc/rwcommon.s(12)
    longjmp.o                 libsrc/common/longjmp.s(10)
    lmod.o                    libsrc/runtime/lmod.s(12)
    ltoa.o                    libsrc/common/ltoa.s(11)
    strcmp.o                  libsrc/common/strcmp.s(9)
    idiv32by16r16.o           /mnt/c/Users/Dominic/Documents/GitHub/cc65/asminc/zeropage.inc(12)
    os_generate_error.o       libsrc/bbc/oslib/os_generate_error.s(15)
    strlower.o                libsrc/common/strlower.s(13)
    itoa.o                    libsrc/common/itoa.s(11)
    strncpy.o                 libsrc/common/strncpy.s(9)
    strncmp.o                 libsrc/common/strncmp.s(9)
    strcat.o                  libsrc/common/strcat.s(10)
    memcpy.o                  libsrc/common/memcpy.s(15)
    stricmp.o                 libsrc/common/stricmp.s(16)
    udiv32by16r16.o           /mnt/c/Users/Dominic/Documents/GitHub/cc65/asminc/zeropage.inc(12)
    strstr.o                  libsrc/common/strstr.s(9)
    strcspn.o                 libsrc/common/strcspn.s(10)
ptr3 (zeropage.o):
    strnicmp.o                libsrc/common/strnicmp.s(11)
    ludiv.o                   libsrc/runtime/ludiv.s(10)
    _swap.o                   libsrc/common/_swap.s(9)
    lmul.o                    libsrc/runtime/lmul.s(10)
    umul8x16r24.o             /mnt/c/Users/Dominic/Documents/GitHub/cc65/asminc/zeropage.inc(12)
    lz4.o                     libsrc/common/lz4.s(11)
    memmove.o                 libsrc/common/memmove.s(13)
    memcmp.o                  libsrc/common/memcmp.s(9)
    strncat.o                 libsrc/common/strncat.s(10)
    imul8x8r16.o              libsrc/runtime/imul8x8r16.s(10)
    memset.o                  libsrc/common/memset.s(20)
    umul16x16r32.o            /mnt/c/Users/Dominic/Documents/GitHub/cc65/asminc/zeropage.inc(12)
    rwcommon.o                libsrc/bbc/rwcommon.s(12)
    ltoa.o                    libsrc/common/ltoa.s(11)
    lshelp.o                  libsrc/runtime/lshelp.s(12)
    idiv32by16r16.o           /mnt/c/Users/Dominic/Documents/GitHub/cc65/asminc/zeropage.inc(12)
    itoa.o                    libsrc/common/itoa.s(11)
    strncmp.o                 libsrc/common/strncmp.s(9)
    memcpy.o                  libsrc/common/memcpy.s(15)
    imul16x16r32.o            /mnt/c/Users/Dominic/Documents/GitHub/cc65/asminc/zeropage.inc(12)
    udiv32by16r16.o           /mnt/c/Users/Dominic/Documents/GitHub/cc65/asminc/zeropage.inc(12)
    strstr.o                  libsrc/common/strstr.s(9)
    umul8x8r16.o              libsrc/runtime/umul8x8r16.s(8)
    _udiv32by16r16.o          /mnt/c/Users/Dominic/Documents/GitHub/cc65/asminc/zeropage.inc(12)
ptr4 (zeropage.o):
    ludiv.o                   libsrc/runtime/ludiv.s(10)
    mul.o                     libsrc/runtime/mul.s(10)
    lmul.o                    libsrc/runtime/lmul.s(10)
    lz4.o                     libsrc/common/lz4.s(11)
    lshelp.o                  libsrc/runtime/lshelp.s(12)
    udiv.o                    libsrc/runtime/udiv.s(10)
    swap.o                    libsrc/runtime/swap.s(9)
    umod.o                    libsrc/runtime/umod.s(9)
    shelp.o                   libsrc/runtime/shelp.s(12)
    linc.o                    libsrc/runtime/linc.s(8)
    strstr.o                  libsrc/common/strstr.s(9)
    mul8.o                    libsrc/runtime/mul8.s(10)
    callptr4.o                libsrc/runtime/callptr4.s(6)
push0 (pushax.o):
    clib_rom.o                ../build/libwrk/clib_imports.inc(1414)
push0ax (lpush.o):
    clib_rom.o                ../build/libwrk/clib_imports.inc(1418)
push1 (push1.o):
    clib_rom.o                ../build/libwrk/clib_imports.inc(1422)
push2 (push2.o):
    clib_rom.o                ../build/libwrk/clib_imports.inc(1426)
push3 (push3.o):
    clib_rom.o                ../build/libwrk/clib_imports.inc(1430)
push4 (push4.o):
    clib_rom.o                ../build/libwrk/clib_imports.inc(1434)
push5 (push5.o):
    clib_rom.o                ../build/libwrk/clib_imports.inc(1438)
push6 (push6.o):
    clib_rom.o                ../build/libwrk/clib_imports.inc(1442)
push7 (push7.o):
    clib_rom.o                ../build/libwrk/clib_imports.inc(1446)
pusha (pusha.o):
    pushc2.o                  libsrc/runtime/pushc2.s(8)
    pushc0.o                  libsrc/runtime/pushc0.s(8)
    pushc1.o                  libsrc/runtime/pushc1.s(8)
    bpushbsp.o                libsrc/runtime/bpushbsp.s(8)
    clib_rom.o                ../build/libwrk/clib_imports.inc(1450)
pusha0 (pushax.o):
    push3.o                   libsrc/runtime/push3.s(8)
    push4.o                   libsrc/runtime/push4.s(8)
    pushbsp.o                 libsrc/runtime/pushbsp.s(8)
    push1.o                   libsrc/runtime/push1.s(8)
    push5.o                   libsrc/runtime/push5.s(8)
    push6.o                   libsrc/runtime/push6.s(8)
    push7.o                   libsrc/runtime/push7.s(8)
    push2.o                   libsrc/runtime/push2.s(8)
    clib_rom.o                ../build/libwrk/clib_imports.inc(1454)
pusha0sp (pusha.o):
    clib_rom.o                ../build/libwrk/clib_imports.inc(1458)
pushaFF (pushaff.o):
    clib_rom.o                ../build/libwrk/clib_imports.inc(1462)
pushax (pushax.o):
    pushw.o                   libsrc/runtime/pushw.s(8)
    strxfrm.o                 ../build/libwrk/strxfrm.s(68)
    lz4.o                     libsrc/common/lz4.s(13)
    pushaff.o                 libsrc/runtime/pushaff.s(8)
    closedir.o                ../build/libwrk/closedir.s(64)
    pushb.o                   libsrc/runtime/pushb.s(8)
    system.o                  ../build/libwrk/system.s(67)
    clib_rom.o                ../build/libwrk/clib_imports.inc(1466)
pushaysp (pusha.o):
    clib_rom.o                ../build/libwrk/clib_imports.inc(1470)
pushb (pushb.o):
    clib_rom.o                ../build/libwrk/clib_imports.inc(1474)
pushbidx (pushb.o):
    clib_rom.o                ../build/libwrk/clib_imports.inc(1478)
pushbsp (pushbsp.o):
    clib_rom.o                ../build/libwrk/clib_imports.inc(1482)
pushbysp (pushbsp.o):
    clib_rom.o                ../build/libwrk/clib_imports.inc(1486)
pushc0 (pushc0.o):
    clib_rom.o                ../build/libwrk/clib_imports.inc(1490)
pushc1 (pushc1.o):
    clib_rom.o                ../build/libwrk/clib_imports.inc(1494)
pushc2 (pushc2.o):
    clib_rom.o                ../build/libwrk/clib_imports.inc(1498)
pusheax (lpush.o):
    pushlysp.o                libsrc/runtime/pushlysp.s(9)
    clib_rom.o                ../build/libwrk/clib_imports.inc(1502)
pushl0 (lpush.o):
    clib_rom.o                ../build/libwrk/clib_imports.inc(1506)
pushlysp (pushlysp.o):
    clib_rom.o                ../build/libwrk/clib_imports.inc(1510)
pushptr1idx (pushw.o):
    clib_rom.o                ../build/libwrk/clib_imports.inc(1514)
pushw (pushw.o):
    clib_rom.o                ../build/libwrk/clib_imports.inc(1518)
pushw0sp (pushwsp.o):
    clib_rom.o                ../build/libwrk/clib_imports.inc(1522)
pushwidx (pushw.o):
    clib_rom.o                ../build/libwrk/clib_imports.inc(1526)
pushwysp (pushwsp.o):
    strxfrm.o                 ../build/libwrk/strxfrm.s(68)
    clib_rom.o                ../build/libwrk/clib_imports.inc(1530)
putchar (cputc.o):
    clib_rom.o                ../build/libwrk/clib_imports.inc(1534)
regbank (zeropage.o):
    regswap.o                 libsrc/runtime/regswap.s(8)
    regswap2.o                libsrc/runtime/regswap2.s(8)
    regswap1.o                libsrc/runtime/regswap1.s(8)
regsave (zeropage.o):
    getcpu.o                  /mnt/c/Users/Dominic/Documents/GitHub/cc65/asminc/zeropage.inc(11)
    lz4.o                     libsrc/common/lz4.s(10)
    lsave.o                   libsrc/runtime/lsave.s(9)
regswap (regswap.o):
    clib_rom.o                ../build/libwrk/clib_imports.inc(1538)
regswap1 (regswap1.o):
    clib_rom.o                ../build/libwrk/clib_imports.inc(1542)
regswap2 (regswap2.o):
    clib_rom.o                ../build/libwrk/clib_imports.inc(1546)
resteax (lsave.o):
    clib_rom.o                ../build/libwrk/clib_imports.inc(1550)
restorezp (preservezp.o):
    clib_rom.o                ../build/libwrk/clib_imports.inc(1554)
return0 (return0.o):
    setjmp.o                  libsrc/common/setjmp.s(10)
    memcmp.o                  libsrc/common/memcmp.s(8)
    memchr.o                  libsrc/common/memchr.s(8)
    doesclrscr.o              libsrc/common/doesclrscr.s(10)
    ult.o                     libsrc/runtime/ult.s(8)
    kbhit.o                   libsrc/bbc/kbhit.s(8)
    clib_rom.o                ../build/libwrk/clib_imports.inc(1558)
return1 (return1.o):
    kbhit.o                   libsrc/bbc/kbhit.s(8)
    clib_rom.o                ../build/libwrk/clib_imports.inc(1562)
rwcommon (rwcommon.o):
    clib_rom.o                ../build/libwrk/clib_imports.inc(1566)
saveeax (lsave.o):
    clib_rom.o                ../build/libwrk/clib_imports.inc(1570)
screensize (_scrsize.o):
    clib_rom.o                ../build/libwrk/clib_imports.inc(1574)
shlax1 (aslax1.o):
    clib_rom.o                ../build/libwrk/clib_imports.inc(1578)
shlax2 (aslax2.o):
    clib_rom.o                ../build/libwrk/clib_imports.inc(1582)
shlax3 (aslax3.o):
    clib_rom.o                ../build/libwrk/clib_imports.inc(1586)
shlax4 (aslax4.o):
    clib_rom.o                ../build/libwrk/clib_imports.inc(1590)
shlaxy (shl.o):
    clib_rom.o                ../build/libwrk/clib_imports.inc(1594)
shleax1 (asleax1.o):
    clib_rom.o                ../build/libwrk/clib_imports.inc(1598)
shleax2 (asleax2.o):
    clib_rom.o                ../build/libwrk/clib_imports.inc(1602)
shleax3 (asleax3.o):
    clib_rom.o                ../build/libwrk/clib_imports.inc(1606)
shleax4 (asleax4.o):
    clib_rom.o                ../build/libwrk/clib_imports.inc(1610)
shrax1 (shrax1.o):
    clib_rom.o                ../build/libwrk/clib_imports.inc(1614)
shrax2 (shrax2.o):
    clib_rom.o                ../build/libwrk/clib_imports.inc(1618)
shrax3 (shrax3.o):
    clib_rom.o                ../build/libwrk/clib_imports.inc(1622)
shrax4 (shrax4.o):
    clib_rom.o                ../build/libwrk/clib_imports.inc(1626)
shraxy (shr.o):
    clib_rom.o                ../build/libwrk/clib_imports.inc(1630)
shreax1 (shreax1.o):
    clib_rom.o                ../build/libwrk/clib_imports.inc(1634)
shreax2 (shreax2.o):
    clib_rom.o                ../build/libwrk/clib_imports.inc(1638)
shreax3 (shreax3.o):
    clib_rom.o                ../build/libwrk/clib_imports.inc(1642)
shreax4 (shreax4.o):
    clib_rom.o                ../build/libwrk/clib_imports.inc(1646)
sp (zeropage.o):
    decsp4.o                  libsrc/runtime/decsp4.s(8)
    ldaxsp.o                  libsrc/runtime/ldaxsp.s(8)
    lcmp.o                    libsrc/runtime/lcmp.s(10)
    subysp.o                  libsrc/runtime/subysp.s(9)
    init_stack.o              libsrc/bbc/init_stack.s(5)
    pushwsp.o                 libsrc/runtime/pushwsp.s(8)
    preservezp.o              /mnt/c/Users/Dominic/Documents/GitHub/cc65/asminc/zeropage.inc(11)
    popsreg.o                 libsrc/runtime/popsreg.s(9)
    lpush.o                   libsrc/runtime/lpush.s(13)
    ludiv.o                   libsrc/runtime/ludiv.s(10)
    sub.o                     libsrc/runtime/sub.s(9)
    subeqsp.o                 libsrc/runtime/subeqsp.s(8)
    rsub.o                    libsrc/runtime/rsub.s(10)
    ladd.o                    libsrc/runtime/ladd.s(9)
    osfile_callosfile.o       libsrc/bbc/oslib/osfile_callosfile.s(12)
    ldeaxysp.o                libsrc/runtime/ldeaxysp.s(12)
    staxsp.o                  libsrc/runtime/staxsp.s(8)
    lpop.o                    libsrc/runtime/lpop.s(10)
    incsp1.o                  libsrc/runtime/incsp1.s(8)
    setjmp.o                  libsrc/common/setjmp.s(11)
    ldauisp.o                 libsrc/runtime/ldauisp.s(8)
    lmul.o                    libsrc/runtime/lmul.s(10)
    land.o                    libsrc/runtime/land.s(10)
    decsp8.o                  libsrc/runtime/decsp8.s(8)
    and.o                     libsrc/runtime/and.s(9)
    regswap.o                 libsrc/runtime/regswap.s(8)
    leave.o                   libsrc/runtime/leave.s(15)
    tosint.o                  libsrc/runtime/tosint.s(9)
    pushbsp.o                 libsrc/runtime/pushbsp.s(9)
    osfile_retdword.o         libsrc/bbc/oslib/osfile_retdword.s(20)
    lxor.o                    libsrc/runtime/lxor.s(10)
    decsp5.o                  libsrc/runtime/decsp5.s(8)
    lor.o                     libsrc/runtime/lor.s(10)
    memset.o                  libsrc/common/memset.s(20)
    addysp.o                  libsrc/runtime/addysp.s(8)
    pusha.o                   libsrc/runtime/pusha.s(8)
    decsp3.o                  libsrc/runtime/decsp3.s(8)
    decsp2.o                  libsrc/runtime/decsp2.s(8)
    longjmp.o                 libsrc/common/longjmp.s(10)
    closedir.o                ../build/libwrk/closedir.s(10)
    incsp2.o                  libsrc/runtime/incsp2.s(8)
    popa.o                    libsrc/runtime/popa.s(8)
    swap.o                    libsrc/runtime/swap.s(9)
    lsub.o                    libsrc/runtime/lsub.s(12)
    os_generate_error.o       libsrc/bbc/oslib/os_generate_error.s(15)
    add.o                     libsrc/runtime/add.s(12)
    itoa.o                    libsrc/common/itoa.s(11)
    laddeqsp.o                libsrc/runtime/laddeqsp.s(8)
    icmp.o                    libsrc/runtime/icmp.s(9)
    staxspi.o                 libsrc/runtime/staxspi.s(10)
    enter.o                   libsrc/runtime/enter.s(8)
    addeqsp.o                 libsrc/runtime/addeqsp.s(8)
    decsp7.o                  libsrc/runtime/decsp7.s(8)
    leaaxsp.o                 libsrc/runtime/leaaxsp.s(8)
    memcpy.o                  libsrc/common/memcpy.s(15)
    pushax.o                  libsrc/runtime/pushax.s(8)
    or.o                      libsrc/runtime/or.s(10)
    steaxsp.o                 libsrc/runtime/steaxsp.s(8)
    regswap2.o                libsrc/runtime/regswap2.s(8)
    xor.o                     libsrc/runtime/xor.s(10)
    _idiv32by16r16.o          /mnt/c/Users/Dominic/Documents/GitHub/cc65/asminc/zeropage.inc(11)
    lrsub.o                   libsrc/runtime/lrsub.s(13)
    system.o                  ../build/libwrk/system.s(10)
    bpushbsp.o                libsrc/runtime/bpushbsp.s(9)
    popptr1.o                 libsrc/runtime/popptr1.s(9)
    pushlysp.o                libsrc/runtime/pushlysp.s(10)
    regswap1.o                libsrc/runtime/regswap1.s(8)
    ldau0sp.o                 libsrc/runtime/ldau0sp.s(8)
    decsp6.o                  libsrc/runtime/decsp6.s(8)
    lsubeqsp.o                libsrc/runtime/lsubeqsp.s(8)
    toslong.o                 libsrc/runtime/toslong.s(9)
    _udiv32by16r16.o          /mnt/c/Users/Dominic/Documents/GitHub/cc65/asminc/zeropage.inc(11)
    decsp1.o                  libsrc/runtime/decsp1.s(8)
    staspidx.o                libsrc/runtime/staspidx.s(9)
sreg (zeropage.o):
    lcmp.o                    libsrc/runtime/lcmp.s(10)
    lbneg.o                   libsrc/runtime/lbneg.s(8)
    asleax4.o                 libsrc/runtime/asleax4.s(8)
    popsreg.o                 libsrc/runtime/popsreg.s(9)
    lpush.o                   libsrc/runtime/lpush.s(13)
    lasr.o                    libsrc/runtime/lasr.s(16)
    ludiv.o                   libsrc/runtime/ludiv.s(10)
    asreax3.o                 libsrc/runtime/asreax3.s(8)
    asleax3.o                 libsrc/runtime/asleax3.s(8)
    shreax1.o                 libsrc/runtime/shreax1.s(8)
    ldeaxi.o                  libsrc/runtime/ldeaxi.s(8)
    ladd.o                    libsrc/runtime/ladd.s(9)
    lshl.o                    libsrc/runtime/lshl.s(16)
    ldeaxysp.o                libsrc/runtime/ldeaxysp.s(12)
    lcompl.o                  libsrc/runtime/lcompl.s(8)
    lpop.o                    libsrc/runtime/lpop.s(10)
    lmul.o                    libsrc/runtime/lmul.s(10)
    land.o                    libsrc/runtime/land.s(10)
    umul8x16r24.o             /mnt/c/Users/Dominic/Documents/GitHub/cc65/asminc/zeropage.inc(11)
    lz4.o                     libsrc/common/lz4.s(10)
    ldiv.o                    libsrc/runtime/ldiv.s(12)
    atoi.o                    libsrc/common/atoi.s(10)
    ltest.o                   libsrc/runtime/ltest.s(8)
    ldec.o                    libsrc/runtime/ldec.s(9)
    asleax2.o                 libsrc/runtime/asleax2.s(8)
    lbcast.o                  libsrc/runtime/lbcast.s(8)
    lsubeq.o                  libsrc/runtime/lsubeq.s(12)
    lneg.o                    libsrc/runtime/lneg.s(11)
    lshr.o                    libsrc/runtime/lshr.s(16)
    lxor.o                    libsrc/runtime/lxor.s(10)
    labs.o                    libsrc/common/labs.s(10)
    lor.o                     libsrc/runtime/lor.s(10)
    umul16x16r32.o            /mnt/c/Users/Dominic/Documents/GitHub/cc65/asminc/zeropage.inc(11)
    lumod.o                   libsrc/runtime/lumod.s(10)
    lmod.o                    libsrc/runtime/lmod.s(12)
    ltoa.o                    libsrc/common/ltoa.s(11)
    asleax1.o                 libsrc/runtime/asleax1.s(8)
    lshelp.o                  libsrc/runtime/lshelp.s(12)
    divt.o                    libsrc/common/divt.s(18)
    udiv.o                    libsrc/runtime/udiv.s(10)
    shreax4.o                 libsrc/runtime/shreax4.s(8)
    lsub.o                    libsrc/runtime/lsub.s(12)
    umod.o                    libsrc/runtime/umod.s(9)
    itoa.o                    libsrc/common/itoa.s(11)
    mod.o                     libsrc/runtime/mod.s(12)
    laddeq.o                  libsrc/runtime/laddeq.s(12)
    laddeqsp.o                libsrc/runtime/laddeqsp.s(8)
    shreax2.o                 libsrc/runtime/shreax2.s(8)
    asreax1.o                 libsrc/runtime/asreax1.s(8)
    icmp.o                    libsrc/runtime/icmp.s(9)
    steaxspi.o                libsrc/runtime/steaxspi.s(10)
    axlong.o                  libsrc/runtime/axlong.s(9)
    steaxsp.o                 libsrc/runtime/steaxsp.s(8)
    _umul16x8r32.o            /mnt/c/Users/Dominic/Documents/GitHub/cc65/asminc/zeropage.inc(11)
    asreax4.o                 libsrc/runtime/asreax4.s(8)
    along.o                   libsrc/runtime/along.s(9)
    lrsub.o                   libsrc/runtime/lrsub.s(13)
    udiv32by16r16.o           /mnt/c/Users/Dominic/Documents/GitHub/cc65/asminc/zeropage.inc(11)
    linc.o                    libsrc/runtime/linc.s(8)
    pushlysp.o                libsrc/runtime/pushlysp.s(10)
    lsubeqsp.o                libsrc/runtime/lsubeqsp.s(8)
    asreax2.o                 libsrc/runtime/asreax2.s(8)
    lsave.o                   libsrc/runtime/lsave.s(9)
    shreax3.o                 libsrc/runtime/shreax3.s(8)
staspidx (staspidx.o):
    clib_rom.o                ../build/libwrk/clib_imports.inc(1650)
stax0sp (staxsp.o):
    clib_rom.o                ../build/libwrk/clib_imports.inc(1654)
staxspidx (staxspi.o):
    clib_rom.o                ../build/libwrk/clib_imports.inc(1658)
staxysp (staxsp.o):
    clib_rom.o                ../build/libwrk/clib_imports.inc(1662)
steax0sp (steaxsp.o):
    clib_rom.o                ../build/libwrk/clib_imports.inc(1666)
steaxspidx (steaxspi.o):
    clib_rom.o                ../build/libwrk/clib_imports.inc(1670)
steaxysp (steaxsp.o):
    osfile_store_attr.o       libsrc/bbc/oslib/osfile_store_attr.s(10)
    osfile_store_len.o        libsrc/bbc/oslib/osfile_store_len.s(10)
    osfile_store_load.o       libsrc/bbc/oslib/osfile_store_load.s(10)
    osfile_store_exec.o       libsrc/bbc/oslib/osfile_store_exec.s(10)
    clib_rom.o                ../build/libwrk/clib_imports.inc(1674)
subeq0sp (subeqsp.o):
    clib_rom.o                ../build/libwrk/clib_imports.inc(1678)
subeqysp (subeqsp.o):
    clib_rom.o                ../build/libwrk/clib_imports.inc(1682)
subysp (subysp.o):
    preservezp.o              libsrc/bbc/preservezp.s(2)
    osfile_alloc_block.o      libsrc/bbc/oslib/osfile_alloc_block.s(9)
    clib_rom.o                ../build/libwrk/clib_imports.inc(1686)
swapstk (swap.o):
    clib_rom.o                ../build/libwrk/clib_imports.inc(1690)
tmp1 (zeropage.o):
    lbneg.o                   libsrc/runtime/lbneg.s(8)
    asleax4.o                 libsrc/runtime/asleax4.s(8)
    lasr.o                    libsrc/runtime/lasr.s(16)
    shrax2.o                  libsrc/runtime/shrax2.s(8)
    strnicmp.o                libsrc/common/strnicmp.s(11)
    aslax1.o                  libsrc/runtime/aslax1.s(8)
    asreax3.o                 libsrc/runtime/asreax3.s(8)
    rsub.o                    libsrc/runtime/rsub.s(10)
    getcpu.o                  /mnt/c/Users/Dominic/Documents/GitHub/cc65/asminc/zeropage.inc(13)
    mul.o                     libsrc/runtime/mul.s(10)
    asleax3.o                 libsrc/runtime/asleax3.s(8)
    shreax1.o                 libsrc/runtime/shreax1.s(8)
    ladd.o                    libsrc/runtime/ladd.s(9)
    lshl.o                    libsrc/runtime/lshl.s(16)
    div.o                     libsrc/runtime/div.s(12)
    land.o                    libsrc/runtime/land.s(10)
    strspn.o                  libsrc/common/strspn.s(10)
    lz4.o                     libsrc/common/lz4.s(11)
    ldiv.o                    libsrc/runtime/ldiv.s(12)
    atoi.o                    libsrc/common/atoi.s(10)
    ltest.o                   libsrc/runtime/ltest.s(8)
    asrax4.o                  libsrc/runtime/asrax4.s(9)
    ldec.o                    libsrc/runtime/ldec.s(9)
    asleax2.o                 libsrc/runtime/asleax2.s(8)
    regswap.o                 libsrc/runtime/regswap.s(8)
    lbcast.o                  libsrc/runtime/lbcast.s(8)
    strrchr.o                 libsrc/common/strrchr.s(10)
    asrax2.o                  libsrc/runtime/asrax2.s(8)
    strncat.o                 libsrc/common/strncat.s(10)
    asrax1.o                  libsrc/runtime/asrax1.s(8)
    lshr.o                    libsrc/runtime/lshr.s(16)
    lxor.o                    libsrc/runtime/lxor.s(10)
    lor.o                     libsrc/runtime/lor.s(10)
    shl.o                     libsrc/runtime/shl.s(16)
    osfile_ret_read_delete_load.o libsrc/bbc/oslib/osfile_ret_read_delete_load.s(21)
    lmod.o                    libsrc/runtime/lmod.s(12)
    ltoa.o                    libsrc/common/ltoa.s(11)
    asleax1.o                 libsrc/runtime/asleax1.s(8)
    lshelp.o                  libsrc/runtime/lshelp.s(12)
    divt.o                    libsrc/common/divt.s(18)
    shreax4.o                 libsrc/runtime/shreax4.s(8)
    idiv32by16r16.o           /mnt/c/Users/Dominic/Documents/GitHub/cc65/asminc/zeropage.inc(13)
    add.o                     libsrc/runtime/add.s(12)
    aslax2.o                  libsrc/runtime/aslax2.s(8)
    aslax3.o                  libsrc/runtime/aslax3.s(8)
    itoa.o                    libsrc/common/itoa.s(11)
    mod.o                     libsrc/runtime/mod.s(12)
    shrax1.o                  libsrc/runtime/shrax1.s(8)
    aslax4.o                  libsrc/runtime/aslax4.s(8)
    shreax2.o                 libsrc/runtime/shreax2.s(8)
    asreax1.o                 libsrc/runtime/asreax1.s(8)
    staxspi.o                 libsrc/runtime/staxspi.s(10)
    strncpy.o                 libsrc/common/strncpy.s(9)
    shrax4.o                  libsrc/runtime/shrax4.s(8)
    steaxspi.o                libsrc/runtime/steaxspi.s(10)
    or.o                      libsrc/runtime/or.s(10)
    asr.o                     libsrc/runtime/asr.s(16)
    asrax3.o                  libsrc/runtime/asrax3.s(9)
    asreax4.o                 libsrc/runtime/asreax4.s(8)
    shelp.o                   libsrc/runtime/shelp.s(12)
    imul16x16r32.o            /mnt/c/Users/Dominic/Documents/GitHub/cc65/asminc/zeropage.inc(13)
    stricmp.o                 libsrc/common/stricmp.s(16)
    xor.o                     libsrc/runtime/xor.s(10)
    decaxy.o                  libsrc/runtime/decaxy.s(8)
    lrsub.o                   libsrc/runtime/lrsub.s(13)
    shrax3.o                  libsrc/runtime/shrax3.s(8)
    strstr.o                  libsrc/common/strstr.s(9)
    incaxy.o                  libsrc/runtime/incaxy.s(8)
    utscopy.o                 libsrc/common/utscopy.s(16)
    strcspn.o                 libsrc/common/strcspn.s(10)
    asreax2.o                 libsrc/runtime/asreax2.s(8)
    strchr.o                  libsrc/common/strchr.s(10)
    shreax3.o                 libsrc/runtime/shreax3.s(8)
    shr.o                     libsrc/runtime/shr.s(16)
    staspidx.o                libsrc/runtime/staspidx.s(9)
tmp2 (zeropage.o):
    strnicmp.o                libsrc/common/strnicmp.s(11)
    div.o                     libsrc/runtime/div.s(12)
    lmul.o                    libsrc/runtime/lmul.s(10)
    strpbrk.o                 libsrc/common/strpbrk.s(11)
    strspn.o                  libsrc/common/strspn.s(10)
    lz4.o                     libsrc/common/lz4.s(11)
    ldiv.o                    libsrc/runtime/ldiv.s(12)
    strrchr.o                 libsrc/common/strrchr.s(10)
    strncat.o                 libsrc/common/strncat.s(10)
    rwcommon.o                libsrc/bbc/rwcommon.s(12)
    lshelp.o                  libsrc/runtime/lshelp.s(12)
    strncpy.o                 libsrc/common/strncpy.s(9)
    steaxspi.o                libsrc/runtime/steaxspi.s(10)
    shelp.o                   libsrc/runtime/shelp.s(12)
    stricmp.o                 libsrc/common/stricmp.s(16)
    strcspn.o                 libsrc/common/strcspn.s(10)
tmp3 (zeropage.o):
    ludiv.o                   libsrc/runtime/ludiv.s(10)
    lmul.o                    libsrc/runtime/lmul.s(10)
    strpbrk.o                 libsrc/common/strpbrk.s(11)
    lumod.o                   libsrc/runtime/lumod.s(10)
    lmod.o                    libsrc/runtime/lmod.s(12)
    strncpy.o                 libsrc/common/strncpy.s(9)
    strcat.o                  libsrc/common/strcat.s(10)
    steaxspi.o                libsrc/runtime/steaxspi.s(10)
tmp4 (zeropage.o):
    mul40.o                   libsrc/common/mul40.s(16)
    ludiv.o                   libsrc/runtime/ludiv.s(10)
    lmul.o                    libsrc/runtime/lmul.s(10)
    mul20.o                   libsrc/common/mul20.s(16)
    lumod.o                   libsrc/runtime/lumod.s(10)
    lmod.o                    libsrc/runtime/lmod.s(12)
tosadd0ax (ladd.o):
    clib_rom.o                ../build/libwrk/clib_imports.inc(1694)
tosadda0 (add.o):
    clib_rom.o                ../build/libwrk/clib_imports.inc(1698)
tosaddax (add.o):
    clib_rom.o                ../build/libwrk/clib_imports.inc(1702)
tosaddeax (ladd.o):
    clib_rom.o                ../build/libwrk/clib_imports.inc(1706)
tosand0ax (land.o):
    clib_rom.o                ../build/libwrk/clib_imports.inc(1710)
tosanda0 (and.o):
    clib_rom.o                ../build/libwrk/clib_imports.inc(1714)
tosandax (and.o):
    clib_rom.o                ../build/libwrk/clib_imports.inc(1718)
tosandeax (land.o):
    clib_rom.o                ../build/libwrk/clib_imports.inc(1722)
tosaslax (shl.o):
    clib_rom.o                ../build/libwrk/clib_imports.inc(1726)
tosasleax (lshl.o):
    clib_rom.o                ../build/libwrk/clib_imports.inc(1730)
tosasrax (asr.o):
    clib_rom.o                ../build/libwrk/clib_imports.inc(1734)
tosasreax (lasr.o):
    clib_rom.o                ../build/libwrk/clib_imports.inc(1738)
tosdiv0ax (ldiv.o):
    clib_rom.o                ../build/libwrk/clib_imports.inc(1742)
tosdiva0 (div.o):
    clib_rom.o                ../build/libwrk/clib_imports.inc(1746)
tosdivax (div.o):
    divt.o                    libsrc/common/divt.s(17)
    clib_rom.o                ../build/libwrk/clib_imports.inc(1750)
tosdiveax (ldiv.o):
    clib_rom.o                ../build/libwrk/clib_imports.inc(1754)
toseq00 (eq.o):
    clib_rom.o                ../build/libwrk/clib_imports.inc(1758)
toseqa0 (eq.o):
    clib_rom.o                ../build/libwrk/clib_imports.inc(1762)
toseqax (eq.o):
    clib_rom.o                ../build/libwrk/clib_imports.inc(1766)
toseqeax (leq.o):
    clib_rom.o                ../build/libwrk/clib_imports.inc(1770)
tosge00 (ge.o):
    clib_rom.o                ../build/libwrk/clib_imports.inc(1774)
tosgea0 (ge.o):
    clib_rom.o                ../build/libwrk/clib_imports.inc(1778)
tosgeax (ge.o):
    clib_rom.o                ../build/libwrk/clib_imports.inc(1782)
tosgeeax (lge.o):
    clib_rom.o                ../build/libwrk/clib_imports.inc(1786)
tosgt00 (gt.o):
    clib_rom.o                ../build/libwrk/clib_imports.inc(1790)
tosgta0 (gt.o):
    clib_rom.o                ../build/libwrk/clib_imports.inc(1794)
tosgtax (gt.o):
    clib_rom.o                ../build/libwrk/clib_imports.inc(1798)
tosgteax (lgt.o):
    clib_rom.o                ../build/libwrk/clib_imports.inc(1802)
tosicmp (icmp.o):
    gt.o                      libsrc/runtime/gt.s(8)
    eq.o                      libsrc/runtime/eq.s(8)
    lt.o                      libsrc/runtime/lt.s(8)
    uge.o                     libsrc/runtime/uge.s(8)
    ult.o                     libsrc/runtime/ult.s(8)
    ule.o                     libsrc/runtime/ule.s(8)
    ugt.o                     libsrc/runtime/ugt.s(8)
    le.o                      libsrc/runtime/le.s(8)
    ne.o                      libsrc/runtime/ne.s(8)
    ge.o                      libsrc/runtime/ge.s(8)
    clib_rom.o                ../build/libwrk/clib_imports.inc(1806)
tosicmp0 (icmp.o):
    clib_rom.o                ../build/libwrk/clib_imports.inc(1810)
tosint (tosint.o):
    clib_rom.o                ../build/libwrk/clib_imports.inc(1814)
toslcmp (lcmp.o):
    lne.o                     libsrc/runtime/lne.s(8)
    lugt.o                    libsrc/runtime/lugt.s(8)
    lule.o                    libsrc/runtime/lule.s(8)
    lult.o                    libsrc/runtime/lult.s(8)
    llt.o                     libsrc/runtime/llt.s(8)
    lge.o                     libsrc/runtime/lge.s(8)
    lgt.o                     libsrc/runtime/lgt.s(8)
    lle.o                     libsrc/runtime/lle.s(8)
    luge.o                    libsrc/runtime/luge.s(8)
    leq.o                     libsrc/runtime/leq.s(8)
    clib_rom.o                ../build/libwrk/clib_imports.inc(1818)
tosle00 (le.o):
    clib_rom.o                ../build/libwrk/clib_imports.inc(1822)
toslea0 (le.o):
    clib_rom.o                ../build/libwrk/clib_imports.inc(1826)
tosleax (le.o):
    clib_rom.o                ../build/libwrk/clib_imports.inc(1830)
tosleeax (lle.o):
    clib_rom.o                ../build/libwrk/clib_imports.inc(1834)
toslong (toslong.o):
    clib_rom.o                ../build/libwrk/clib_imports.inc(1838)
toslt00 (lt.o):
    clib_rom.o                ../build/libwrk/clib_imports.inc(1842)
toslta0 (lt.o):
    clib_rom.o                ../build/libwrk/clib_imports.inc(1846)
tosltax (lt.o):
    clib_rom.o                ../build/libwrk/clib_imports.inc(1850)
toslteax (llt.o):
    clib_rom.o                ../build/libwrk/clib_imports.inc(1854)
tosmod0ax (lmod.o):
    clib_rom.o                ../build/libwrk/clib_imports.inc(1858)
tosmoda0 (mod.o):
    clib_rom.o                ../build/libwrk/clib_imports.inc(1862)
tosmodax (mod.o):
    clib_rom.o                ../build/libwrk/clib_imports.inc(1866)
tosmodeax (lmod.o):
    clib_rom.o                ../build/libwrk/clib_imports.inc(1870)
tosmul0ax (lmul.o):
    clib_rom.o                ../build/libwrk/clib_imports.inc(1874)
tosmula0 (mul8.o):
    clib_rom.o                ../build/libwrk/clib_imports.inc(1878)
tosmulax (mul.o):
    clib_rom.o                ../build/libwrk/clib_imports.inc(1882)
tosmuleax (lmul.o):
    clib_rom.o                ../build/libwrk/clib_imports.inc(1886)
tosne00 (ne.o):
    clib_rom.o                ../build/libwrk/clib_imports.inc(1890)
tosnea0 (ne.o):
    clib_rom.o                ../build/libwrk/clib_imports.inc(1894)
tosneax (ne.o):
    clib_rom.o                ../build/libwrk/clib_imports.inc(1898)
tosneeax (lne.o):
    clib_rom.o                ../build/libwrk/clib_imports.inc(1902)
tosor0ax (lor.o):
    clib_rom.o                ../build/libwrk/clib_imports.inc(1906)
tosora0 (or.o):
    clib_rom.o                ../build/libwrk/clib_imports.inc(1910)
tosorax (or.o):
    clib_rom.o                ../build/libwrk/clib_imports.inc(1914)
tosoreax (lor.o):
    clib_rom.o                ../build/libwrk/clib_imports.inc(1918)
tosrsub0ax (lrsub.o):
    clib_rom.o                ../build/libwrk/clib_imports.inc(1922)
tosrsuba0 (rsub.o):
    clib_rom.o                ../build/libwrk/clib_imports.inc(1926)
tosrsubax (rsub.o):
    clib_rom.o                ../build/libwrk/clib_imports.inc(1930)
tosrsubeax (lrsub.o):
    clib_rom.o                ../build/libwrk/clib_imports.inc(1934)
tosshlax (shl.o):
    clib_rom.o                ../build/libwrk/clib_imports.inc(1938)
tosshleax (lshl.o):
    clib_rom.o                ../build/libwrk/clib_imports.inc(1942)
tosshrax (shr.o):
    clib_rom.o                ../build/libwrk/clib_imports.inc(1946)
tosshreax (lshr.o):
    clib_rom.o                ../build/libwrk/clib_imports.inc(1950)
tossub0ax (lsub.o):
    clib_rom.o                ../build/libwrk/clib_imports.inc(1954)
tossuba0 (sub.o):
    clib_rom.o                ../build/libwrk/clib_imports.inc(1958)
tossubax (sub.o):
    clib_rom.o                ../build/libwrk/clib_imports.inc(1962)
tossubeax (lsub.o):
    clib_rom.o                ../build/libwrk/clib_imports.inc(1966)
tosudiv0ax (ludiv.o):
    clib_rom.o                ../build/libwrk/clib_imports.inc(1970)
tosudiva0 (udiv.o):
    clib_rom.o                ../build/libwrk/clib_imports.inc(1974)
tosudivax (udiv.o):
    clib_rom.o                ../build/libwrk/clib_imports.inc(1978)
tosudiveax (ludiv.o):
    clib_rom.o                ../build/libwrk/clib_imports.inc(1982)
tosuge00 (uge.o):
    clib_rom.o                ../build/libwrk/clib_imports.inc(1986)
tosugea0 (uge.o):
    clib_rom.o                ../build/libwrk/clib_imports.inc(1990)
tosugeax (uge.o):
    clib_rom.o                ../build/libwrk/clib_imports.inc(1994)
tosugeeax (luge.o):
    clib_rom.o                ../build/libwrk/clib_imports.inc(1998)
tosugt00 (ugt.o):
    clib_rom.o                ../build/libwrk/clib_imports.inc(2002)
tosugta0 (ugt.o):
    clib_rom.o                ../build/libwrk/clib_imports.inc(2006)
tosugtax (ugt.o):
    clib_rom.o                ../build/libwrk/clib_imports.inc(2010)
tosugteax (lugt.o):
    clib_rom.o                ../build/libwrk/clib_imports.inc(2014)
tosule00 (ule.o):
    clib_rom.o                ../build/libwrk/clib_imports.inc(2018)
tosulea0 (ule.o):
    clib_rom.o                ../build/libwrk/clib_imports.inc(2022)
tosuleax (ule.o):
    clib_rom.o                ../build/libwrk/clib_imports.inc(2026)
tosuleeax (lule.o):
    clib_rom.o                ../build/libwrk/clib_imports.inc(2030)
tosulong (toslong.o):
    clib_rom.o                ../build/libwrk/clib_imports.inc(2034)
tosult00 (ult.o):
    clib_rom.o                ../build/libwrk/clib_imports.inc(2038)
tosulta0 (ult.o):
    clib_rom.o                ../build/libwrk/clib_imports.inc(2042)
tosultax (ult.o):
    clib_rom.o                ../build/libwrk/clib_imports.inc(2046)
tosulteax (lult.o):
    clib_rom.o                ../build/libwrk/clib_imports.inc(2050)
tosumod0ax (lumod.o):
    clib_rom.o                ../build/libwrk/clib_imports.inc(2054)
tosumoda0 (umod.o):
    clib_rom.o                ../build/libwrk/clib_imports.inc(2058)
tosumodax (umod.o):
    clib_rom.o                ../build/libwrk/clib_imports.inc(2062)
tosumodeax (lumod.o):
    clib_rom.o                ../build/libwrk/clib_imports.inc(2066)
tosumul0ax (lmul.o):
    clib_rom.o                ../build/libwrk/clib_imports.inc(2070)
tosumula0 (mul8.o):
    clib_rom.o                ../build/libwrk/clib_imports.inc(2074)
tosumulax (mul.o):
    clib_rom.o                ../build/libwrk/clib_imports.inc(2078)
tosumuleax (lmul.o):
    clib_rom.o                ../build/libwrk/clib_imports.inc(2082)
tosxor0ax (lxor.o):
    clib_rom.o                ../build/libwrk/clib_imports.inc(2086)
tosxora0 (xor.o):
    clib_rom.o                ../build/libwrk/clib_imports.inc(2090)
tosxorax (xor.o):
    clib_rom.o                ../build/libwrk/clib_imports.inc(2094)
tosxoreax (lxor.o):
    clib_rom.o                ../build/libwrk/clib_imports.inc(2098)
tsteax (ltest.o):
    clib_rom.o                ../build/libwrk/clib_imports.inc(2102)
udiv16 (udiv.o):
    umod.o                    libsrc/runtime/umod.s(8)
    shelp.o                   libsrc/runtime/shelp.s(11)
    clib_rom.o                ../build/libwrk/clib_imports.inc(2106)
udiv32 (ludiv.o):
    ldiv.o                    libsrc/runtime/ldiv.s(11)
    lumod.o                   libsrc/runtime/lumod.s(9)
    lmod.o                    libsrc/runtime/lmod.s(11)
    clib_rom.o                ../build/libwrk/clib_imports.inc(2110)
udiv32by16r16 (udiv32by16r16.o):
    clib_rom.o                ../build/libwrk/clib_imports.inc(2114)
udiv32by16r16m (udiv32by16r16.o):
    idiv32by16r16.o           libsrc/runtime/idiv32by16r16.s(8)
    _udiv32by16r16.o          libsrc/common/_udiv32by16r16.s(8)
    clib_rom.o                ../build/libwrk/clib_imports.inc(2118)
umul16x16r16 (umul16x16r32.o):
    clib_rom.o                ../build/libwrk/clib_imports.inc(2122)
umul16x16r16m (umul16x16r32.o):
    clib_rom.o                ../build/libwrk/clib_imports.inc(2126)
umul16x16r32 (umul16x16r32.o):
    _umul16x16r32.o           libsrc/common/_umul16x16r32.s(8)
    clib_rom.o                ../build/libwrk/clib_imports.inc(2130)
umul16x16r32m (umul16x16r32.o):
    imul16x16r32.o            libsrc/runtime/imul16x16r32.s(8)
    clib_rom.o                ../build/libwrk/clib_imports.inc(2134)
umul8x16r16 (umul8x16r24.o):
    clib_rom.o                ../build/libwrk/clib_imports.inc(2138)
umul8x16r16m (umul8x16r24.o):
    clib_rom.o                ../build/libwrk/clib_imports.inc(2142)
umul8x16r24 (umul8x16r24.o):
    _umul16x8r32.o            libsrc/common/_umul16x8r32.s(8)
    clib_rom.o                ../build/libwrk/clib_imports.inc(2146)
umul8x16r24m (umul8x16r24.o):
    clib_rom.o                ../build/libwrk/clib_imports.inc(2150)
umul8x8r16 (umul8x8r16.o):
    _umul8x8r16.o             libsrc/common/_umul8x8r16.s(8)
    clib_rom.o                ../build/libwrk/clib_imports.inc(2154)
umul8x8r16m (umul8x8r16.o):
    clib_rom.o                ../build/libwrk/clib_imports.inc(2158)
utscopy (utscopy.o):
    sysuname.o                libsrc/bbc/sysuname.s(9)
    clib_rom.o                ../build/libwrk/clib_imports.inc(2162)
utsdata (sysuname.o):
    utscopy.o                 libsrc/common/utscopy.s(15)
    clib_rom.o                ../build/libwrk/clib_imports.inc(2166)
utsteax (ltest.o):
    clib_rom.o                ../build/libwrk/clib_imports.inc(2170)
xosfile_ret_read_delete_load (osfile_ret_read_delete_load.o):
    clib_rom.o                ../build/libwrk/clib_imports.inc(2174)

